	.file	"graph.cpp"
	.text
	.section	.text._ZnwmPv,"axG",@progbits,_ZnwmPv,comdat
	.weak	_ZnwmPv
	.type	_ZnwmPv, @function
_ZnwmPv:
.LFB286:
	.cfi_startproc
	endbr64
	pushq	%rbp
	.cfi_def_cfa_offset 16
	.cfi_offset 6, -16
	movq	%rsp, %rbp
	.cfi_def_cfa_register 6
	movq	%rdi, -8(%rbp)
	movq	%rsi, -16(%rbp)
	movq	-16(%rbp), %rax
	popq	%rbp
	.cfi_def_cfa 7, 8
	ret
	.cfi_endproc
.LFE286:
	.size	_ZnwmPv, .-_ZnwmPv
	.section	.text._ZdlPvS_,"axG",@progbits,_ZdlPvS_,comdat
	.weak	_ZdlPvS_
	.type	_ZdlPvS_, @function
_ZdlPvS_:
.LFB288:
	.cfi_startproc
	endbr64
	pushq	%rbp
	.cfi_def_cfa_offset 16
	.cfi_offset 6, -16
	movq	%rsp, %rbp
	.cfi_def_cfa_register 6
	movq	%rdi, -8(%rbp)
	movq	%rsi, -16(%rbp)
	nop
	popq	%rbp
	.cfi_def_cfa 7, 8
	ret
	.cfi_endproc
.LFE288:
	.size	_ZdlPvS_, .-_ZdlPvS_
	.section	.rodata
	.type	_ZStL19piecewise_construct, @object
	.size	_ZStL19piecewise_construct, 1
_ZStL19piecewise_construct:
	.zero	1
	.type	_ZStL13allocator_arg, @object
	.size	_ZStL13allocator_arg, 1
_ZStL13allocator_arg:
	.zero	1
	.type	_ZStL6ignore, @object
	.size	_ZStL6ignore, 1
_ZStL6ignore:
	.zero	1
	.local	_ZStL8__ioinit
	.comm	_ZStL8__ioinit,1,1
	.section	.text._ZNSt15_Rb_tree_headerC2Ev,"axG",@progbits,_ZNSt15_Rb_tree_headerC5Ev,comdat
	.align 2
	.weak	_ZNSt15_Rb_tree_headerC2Ev
	.type	_ZNSt15_Rb_tree_headerC2Ev, @function
_ZNSt15_Rb_tree_headerC2Ev:
.LFB3805:
	.cfi_startproc
	endbr64
	pushq	%rbp
	.cfi_def_cfa_offset 16
	.cfi_offset 6, -16
	movq	%rsp, %rbp
	.cfi_def_cfa_register 6
	subq	$16, %rsp
	movq	%rdi, -8(%rbp)
	movq	-8(%rbp), %rax
	movl	$0, (%rax)
	movq	-8(%rbp), %rax
	movq	%rax, %rdi
	call	_ZNSt15_Rb_tree_header8_M_resetEv
	nop
	leave
	.cfi_def_cfa 7, 8
	ret
	.cfi_endproc
.LFE3805:
	.size	_ZNSt15_Rb_tree_headerC2Ev, .-_ZNSt15_Rb_tree_headerC2Ev
	.weak	_ZNSt15_Rb_tree_headerC1Ev
	.set	_ZNSt15_Rb_tree_headerC1Ev,_ZNSt15_Rb_tree_headerC2Ev
	.section	.text._ZNSt15_Rb_tree_header8_M_resetEv,"axG",@progbits,_ZNSt15_Rb_tree_header8_M_resetEv,comdat
	.align 2
	.weak	_ZNSt15_Rb_tree_header8_M_resetEv
	.type	_ZNSt15_Rb_tree_header8_M_resetEv, @function
_ZNSt15_Rb_tree_header8_M_resetEv:
.LFB3811:
	.cfi_startproc
	endbr64
	pushq	%rbp
	.cfi_def_cfa_offset 16
	.cfi_offset 6, -16
	movq	%rsp, %rbp
	.cfi_def_cfa_register 6
	movq	%rdi, -8(%rbp)
	movq	-8(%rbp), %rax
	movq	$0, 8(%rax)
	movq	-8(%rbp), %rdx
	movq	-8(%rbp), %rax
	movq	%rdx, 16(%rax)
	movq	-8(%rbp), %rdx
	movq	-8(%rbp), %rax
	movq	%rdx, 24(%rax)
	movq	-8(%rbp), %rax
	movq	$0, 32(%rax)
	nop
	popq	%rbp
	.cfi_def_cfa 7, 8
	ret
	.cfi_endproc
.LFE3811:
	.size	_ZNSt15_Rb_tree_header8_M_resetEv, .-_ZNSt15_Rb_tree_header8_M_resetEv
	.section	.rodata
	.align 4
	.type	_ZN9__gnu_cxxL21__default_lock_policyE, @object
	.size	_ZN9__gnu_cxxL21__default_lock_policyE, 4
_ZN9__gnu_cxxL21__default_lock_policyE:
	.long	2
	.type	_ZStL10defer_lock, @object
	.size	_ZStL10defer_lock, 1
_ZStL10defer_lock:
	.zero	1
	.type	_ZStL11try_to_lock, @object
	.size	_ZStL11try_to_lock, 1
_ZStL11try_to_lock:
	.zero	1
	.type	_ZStL10adopt_lock, @object
	.size	_ZStL10adopt_lock, 1
_ZStL10adopt_lock:
	.zero	1
	.align 4
	.type	_ZNSt15regex_constantsL5icaseE, @object
	.size	_ZNSt15regex_constantsL5icaseE, 4
_ZNSt15regex_constantsL5icaseE:
	.long	1
	.align 4
	.type	_ZNSt15regex_constantsL6nosubsE, @object
	.size	_ZNSt15regex_constantsL6nosubsE, 4
_ZNSt15regex_constantsL6nosubsE:
	.long	2
	.align 4
	.type	_ZNSt15regex_constantsL8optimizeE, @object
	.size	_ZNSt15regex_constantsL8optimizeE, 4
_ZNSt15regex_constantsL8optimizeE:
	.long	4
	.align 4
	.type	_ZNSt15regex_constantsL7collateE, @object
	.size	_ZNSt15regex_constantsL7collateE, 4
_ZNSt15regex_constantsL7collateE:
	.long	8
	.align 4
	.type	_ZNSt15regex_constantsL10ECMAScriptE, @object
	.size	_ZNSt15regex_constantsL10ECMAScriptE, 4
_ZNSt15regex_constantsL10ECMAScriptE:
	.long	16
	.align 4
	.type	_ZNSt15regex_constantsL5basicE, @object
	.size	_ZNSt15regex_constantsL5basicE, 4
_ZNSt15regex_constantsL5basicE:
	.long	32
	.align 4
	.type	_ZNSt15regex_constantsL8extendedE, @object
	.size	_ZNSt15regex_constantsL8extendedE, 4
_ZNSt15regex_constantsL8extendedE:
	.long	64
	.align 4
	.type	_ZNSt15regex_constantsL3awkE, @object
	.size	_ZNSt15regex_constantsL3awkE, 4
_ZNSt15regex_constantsL3awkE:
	.long	128
	.align 4
	.type	_ZNSt15regex_constantsL4grepE, @object
	.size	_ZNSt15regex_constantsL4grepE, 4
_ZNSt15regex_constantsL4grepE:
	.long	256
	.align 4
	.type	_ZNSt15regex_constantsL5egrepE, @object
	.size	_ZNSt15regex_constantsL5egrepE, 4
_ZNSt15regex_constantsL5egrepE:
	.long	512
	.align 4
	.type	_ZNSt15regex_constantsL12__polynomialE, @object
	.size	_ZNSt15regex_constantsL12__polynomialE, 4
_ZNSt15regex_constantsL12__polynomialE:
	.long	1024
	.align 4
	.type	_ZNSt15regex_constantsL13match_defaultE, @object
	.size	_ZNSt15regex_constantsL13match_defaultE, 4
_ZNSt15regex_constantsL13match_defaultE:
	.zero	4
	.align 4
	.type	_ZNSt15regex_constantsL13match_not_bolE, @object
	.size	_ZNSt15regex_constantsL13match_not_bolE, 4
_ZNSt15regex_constantsL13match_not_bolE:
	.long	1
	.align 4
	.type	_ZNSt15regex_constantsL13match_not_eolE, @object
	.size	_ZNSt15regex_constantsL13match_not_eolE, 4
_ZNSt15regex_constantsL13match_not_eolE:
	.long	2
	.align 4
	.type	_ZNSt15regex_constantsL13match_not_bowE, @object
	.size	_ZNSt15regex_constantsL13match_not_bowE, 4
_ZNSt15regex_constantsL13match_not_bowE:
	.long	4
	.align 4
	.type	_ZNSt15regex_constantsL13match_not_eowE, @object
	.size	_ZNSt15regex_constantsL13match_not_eowE, 4
_ZNSt15regex_constantsL13match_not_eowE:
	.long	8
	.align 4
	.type	_ZNSt15regex_constantsL9match_anyE, @object
	.size	_ZNSt15regex_constantsL9match_anyE, 4
_ZNSt15regex_constantsL9match_anyE:
	.long	16
	.align 4
	.type	_ZNSt15regex_constantsL14match_not_nullE, @object
	.size	_ZNSt15regex_constantsL14match_not_nullE, 4
_ZNSt15regex_constantsL14match_not_nullE:
	.long	32
	.align 4
	.type	_ZNSt15regex_constantsL16match_continuousE, @object
	.size	_ZNSt15regex_constantsL16match_continuousE, 4
_ZNSt15regex_constantsL16match_continuousE:
	.long	64
	.align 4
	.type	_ZNSt15regex_constantsL16match_prev_availE, @object
	.size	_ZNSt15regex_constantsL16match_prev_availE, 4
_ZNSt15regex_constantsL16match_prev_availE:
	.long	128
	.align 4
	.type	_ZNSt15regex_constantsL14format_defaultE, @object
	.size	_ZNSt15regex_constantsL14format_defaultE, 4
_ZNSt15regex_constantsL14format_defaultE:
	.zero	4
	.align 4
	.type	_ZNSt15regex_constantsL10format_sedE, @object
	.size	_ZNSt15regex_constantsL10format_sedE, 4
_ZNSt15regex_constantsL10format_sedE:
	.long	256
	.align 4
	.type	_ZNSt15regex_constantsL14format_no_copyE, @object
	.size	_ZNSt15regex_constantsL14format_no_copyE, 4
_ZNSt15regex_constantsL14format_no_copyE:
	.long	512
	.align 4
	.type	_ZNSt15regex_constantsL17format_first_onlyE, @object
	.size	_ZNSt15regex_constantsL17format_first_onlyE, 4
_ZNSt15regex_constantsL17format_first_onlyE:
	.long	1024
	.align 4
	.type	_ZNSt15regex_constantsL13error_collateE, @object
	.size	_ZNSt15regex_constantsL13error_collateE, 4
_ZNSt15regex_constantsL13error_collateE:
	.zero	4
	.align 4
	.type	_ZNSt15regex_constantsL11error_ctypeE, @object
	.size	_ZNSt15regex_constantsL11error_ctypeE, 4
_ZNSt15regex_constantsL11error_ctypeE:
	.long	1
	.align 4
	.type	_ZNSt15regex_constantsL12error_escapeE, @object
	.size	_ZNSt15regex_constantsL12error_escapeE, 4
_ZNSt15regex_constantsL12error_escapeE:
	.long	2
	.align 4
	.type	_ZNSt15regex_constantsL13error_backrefE, @object
	.size	_ZNSt15regex_constantsL13error_backrefE, 4
_ZNSt15regex_constantsL13error_backrefE:
	.long	3
	.align 4
	.type	_ZNSt15regex_constantsL11error_brackE, @object
	.size	_ZNSt15regex_constantsL11error_brackE, 4
_ZNSt15regex_constantsL11error_brackE:
	.long	4
	.align 4
	.type	_ZNSt15regex_constantsL11error_parenE, @object
	.size	_ZNSt15regex_constantsL11error_parenE, 4
_ZNSt15regex_constantsL11error_parenE:
	.long	5
	.align 4
	.type	_ZNSt15regex_constantsL11error_braceE, @object
	.size	_ZNSt15regex_constantsL11error_braceE, 4
_ZNSt15regex_constantsL11error_braceE:
	.long	6
	.align 4
	.type	_ZNSt15regex_constantsL14error_badbraceE, @object
	.size	_ZNSt15regex_constantsL14error_badbraceE, 4
_ZNSt15regex_constantsL14error_badbraceE:
	.long	7
	.align 4
	.type	_ZNSt15regex_constantsL11error_rangeE, @object
	.size	_ZNSt15regex_constantsL11error_rangeE, 4
_ZNSt15regex_constantsL11error_rangeE:
	.long	8
	.align 4
	.type	_ZNSt15regex_constantsL11error_spaceE, @object
	.size	_ZNSt15regex_constantsL11error_spaceE, 4
_ZNSt15regex_constantsL11error_spaceE:
	.long	9
	.align 4
	.type	_ZNSt15regex_constantsL15error_badrepeatE, @object
	.size	_ZNSt15regex_constantsL15error_badrepeatE, 4
_ZNSt15regex_constantsL15error_badrepeatE:
	.long	10
	.align 4
	.type	_ZNSt15regex_constantsL16error_complexityE, @object
	.size	_ZNSt15regex_constantsL16error_complexityE, 4
_ZNSt15regex_constantsL16error_complexityE:
	.long	11
	.align 4
	.type	_ZNSt15regex_constantsL11error_stackE, @object
	.size	_ZNSt15regex_constantsL11error_stackE, 4
_ZNSt15regex_constantsL11error_stackE:
	.long	12
	.align 8
	.type	_ZNSt8__detailL19_S_invalid_state_idE, @object
	.size	_ZNSt8__detailL19_S_invalid_state_idE, 8
_ZNSt8__detailL19_S_invalid_state_idE:
	.quad	-1
	.align 8
	.type	_ZL4MAXN, @object
	.size	_ZL4MAXN, 8
_ZL4MAXN:
	.quad	1000005
	.align 8
	.type	_ZL4MAXM, @object
	.size	_ZL4MAXM, 8
_ZL4MAXM:
	.quad	5000005
	.globl	ids
	.bss
	.align 32
	.type	ids, @object
	.size	ids, 8000040
ids:
	.zero	8000040
	.section	.text._ZNSt8_Rb_treeISt4pairIxxES0_IKS1_xESt10_Select1stIS3_ESt4lessIS1_ESaIS3_EE13_Rb_tree_implIS7_Lb1EED2Ev,"axG",@progbits,_ZNSt8_Rb_treeISt4pairIxxES0_IKS1_xESt10_Select1stIS3_ESt4lessIS1_ESaIS3_EE13_Rb_tree_implIS7_Lb1EED5Ev,comdat
	.align 2
	.weak	_ZNSt8_Rb_treeISt4pairIxxES0_IKS1_xESt10_Select1stIS3_ESt4lessIS1_ESaIS3_EE13_Rb_tree_implIS7_Lb1EED2Ev
	.type	_ZNSt8_Rb_treeISt4pairIxxES0_IKS1_xESt10_Select1stIS3_ESt4lessIS1_ESaIS3_EE13_Rb_tree_implIS7_Lb1EED2Ev, @function
_ZNSt8_Rb_treeISt4pairIxxES0_IKS1_xESt10_Select1stIS3_ESt4lessIS1_ESaIS3_EE13_Rb_tree_implIS7_Lb1EED2Ev:
.LFB8293:
	.cfi_startproc
	endbr64
	pushq	%rbp
	.cfi_def_cfa_offset 16
	.cfi_offset 6, -16
	movq	%rsp, %rbp
	.cfi_def_cfa_register 6
	subq	$16, %rsp
	movq	%rdi, -8(%rbp)
	movq	-8(%rbp), %rax
	movq	%rax, %rdi
	call	_ZNSaISt13_Rb_tree_nodeISt4pairIKS0_IxxExEEED2Ev
	nop
	leave
	.cfi_def_cfa 7, 8
	ret
	.cfi_endproc
.LFE8293:
	.size	_ZNSt8_Rb_treeISt4pairIxxES0_IKS1_xESt10_Select1stIS3_ESt4lessIS1_ESaIS3_EE13_Rb_tree_implIS7_Lb1EED2Ev, .-_ZNSt8_Rb_treeISt4pairIxxES0_IKS1_xESt10_Select1stIS3_ESt4lessIS1_ESaIS3_EE13_Rb_tree_implIS7_Lb1EED2Ev
	.weak	_ZNSt8_Rb_treeISt4pairIxxES0_IKS1_xESt10_Select1stIS3_ESt4lessIS1_ESaIS3_EE13_Rb_tree_implIS7_Lb1EED1Ev
	.set	_ZNSt8_Rb_treeISt4pairIxxES0_IKS1_xESt10_Select1stIS3_ESt4lessIS1_ESaIS3_EE13_Rb_tree_implIS7_Lb1EED1Ev,_ZNSt8_Rb_treeISt4pairIxxES0_IKS1_xESt10_Select1stIS3_ESt4lessIS1_ESaIS3_EE13_Rb_tree_implIS7_Lb1EED2Ev
	.section	.text._ZNSt8_Rb_treeISt4pairIxxES0_IKS1_xESt10_Select1stIS3_ESt4lessIS1_ESaIS3_EEC2Ev,"axG",@progbits,_ZNSt8_Rb_treeISt4pairIxxES0_IKS1_xESt10_Select1stIS3_ESt4lessIS1_ESaIS3_EEC5Ev,comdat
	.align 2
	.weak	_ZNSt8_Rb_treeISt4pairIxxES0_IKS1_xESt10_Select1stIS3_ESt4lessIS1_ESaIS3_EEC2Ev
	.type	_ZNSt8_Rb_treeISt4pairIxxES0_IKS1_xESt10_Select1stIS3_ESt4lessIS1_ESaIS3_EEC2Ev, @function
_ZNSt8_Rb_treeISt4pairIxxES0_IKS1_xESt10_Select1stIS3_ESt4lessIS1_ESaIS3_EEC2Ev:
.LFB8295:
	.cfi_startproc
	endbr64
	pushq	%rbp
	.cfi_def_cfa_offset 16
	.cfi_offset 6, -16
	movq	%rsp, %rbp
	.cfi_def_cfa_register 6
	subq	$16, %rsp
	movq	%rdi, -8(%rbp)
	movq	-8(%rbp), %rax
	movq	%rax, %rdi
	call	_ZNSt8_Rb_treeISt4pairIxxES0_IKS1_xESt10_Select1stIS3_ESt4lessIS1_ESaIS3_EE13_Rb_tree_implIS7_Lb1EEC1Ev
	nop
	leave
	.cfi_def_cfa 7, 8
	ret
	.cfi_endproc
.LFE8295:
	.size	_ZNSt8_Rb_treeISt4pairIxxES0_IKS1_xESt10_Select1stIS3_ESt4lessIS1_ESaIS3_EEC2Ev, .-_ZNSt8_Rb_treeISt4pairIxxES0_IKS1_xESt10_Select1stIS3_ESt4lessIS1_ESaIS3_EEC2Ev
	.weak	_ZNSt8_Rb_treeISt4pairIxxES0_IKS1_xESt10_Select1stIS3_ESt4lessIS1_ESaIS3_EEC1Ev
	.set	_ZNSt8_Rb_treeISt4pairIxxES0_IKS1_xESt10_Select1stIS3_ESt4lessIS1_ESaIS3_EEC1Ev,_ZNSt8_Rb_treeISt4pairIxxES0_IKS1_xESt10_Select1stIS3_ESt4lessIS1_ESaIS3_EEC2Ev
	.section	.text._ZNSt3mapISt4pairIxxExSt4lessIS1_ESaIS0_IKS1_xEEEC2Ev,"axG",@progbits,_ZNSt3mapISt4pairIxxExSt4lessIS1_ESaIS0_IKS1_xEEEC5Ev,comdat
	.align 2
	.weak	_ZNSt3mapISt4pairIxxExSt4lessIS1_ESaIS0_IKS1_xEEEC2Ev
	.type	_ZNSt3mapISt4pairIxxExSt4lessIS1_ESaIS0_IKS1_xEEEC2Ev, @function
_ZNSt3mapISt4pairIxxExSt4lessIS1_ESaIS0_IKS1_xEEEC2Ev:
.LFB8297:
	.cfi_startproc
	endbr64
	pushq	%rbp
	.cfi_def_cfa_offset 16
	.cfi_offset 6, -16
	movq	%rsp, %rbp
	.cfi_def_cfa_register 6
	subq	$16, %rsp
	movq	%rdi, -8(%rbp)
	movq	-8(%rbp), %rax
	movq	%rax, %rdi
	call	_ZNSt8_Rb_treeISt4pairIxxES0_IKS1_xESt10_Select1stIS3_ESt4lessIS1_ESaIS3_EEC1Ev
	nop
	leave
	.cfi_def_cfa 7, 8
	ret
	.cfi_endproc
.LFE8297:
	.size	_ZNSt3mapISt4pairIxxExSt4lessIS1_ESaIS0_IKS1_xEEEC2Ev, .-_ZNSt3mapISt4pairIxxExSt4lessIS1_ESaIS0_IKS1_xEEEC2Ev
	.weak	_ZNSt3mapISt4pairIxxExSt4lessIS1_ESaIS0_IKS1_xEEEC1Ev
	.set	_ZNSt3mapISt4pairIxxExSt4lessIS1_ESaIS0_IKS1_xEEEC1Ev,_ZNSt3mapISt4pairIxxExSt4lessIS1_ESaIS0_IKS1_xEEEC2Ev
	.globl	existed
	.bss
	.align 32
	.type	existed, @object
	.size	existed, 48
existed:
	.zero	48
	.section	.rodata
.LC0:
	.string	"ERROR: n is too big.\n"
.LC1:
	.string	"ERROR: m is too big.\n"
	.align 8
.LC2:
	.string	"ERROR: can't generate such graph,         try entering a smaller m or a bigger n."
	.text
	.globl	_Z11generateDAGxx
	.type	_Z11generateDAGxx, @function
_Z11generateDAGxx:
.LFB8299:
	.cfi_startproc
	endbr64
	pushq	%rbp
	.cfi_def_cfa_offset 16
	.cfi_offset 6, -16
	movq	%rsp, %rbp
	.cfi_def_cfa_register 6
	subq	$80, %rsp
	movq	%rdi, -72(%rbp)
	movq	%rsi, -80(%rbp)
	movq	%fs:40, %rax
	movq	%rax, -8(%rbp)
	xorl	%eax, %eax
	cmpq	$1000000, -72(%rbp)
	jle	.L10
	leaq	.LC0(%rip), %rsi
	leaq	_ZSt4cout(%rip), %rdi
	call	_ZStlsISt11char_traitsIcEERSt13basic_ostreamIcT_ES5_PKc@PLT
	jmp	.L9
.L10:
	cmpq	$5000000, -80(%rbp)
	jle	.L12
	leaq	.LC1(%rip), %rsi
	leaq	_ZSt4cout(%rip), %rdi
	call	_ZStlsISt11char_traitsIcEERSt13basic_ostreamIcT_ES5_PKc@PLT
	jmp	.L9
.L12:
	movq	-72(%rbp), %rax
	subq	$1, %rax
	imulq	-72(%rbp), %rax
	movq	%rax, %rdx
	shrq	$63, %rdx
	addq	%rdx, %rax
	sarq	%rax
	cmpq	%rax, -80(%rbp)
	jle	.L13
	leaq	.LC2(%rip), %rsi
	leaq	_ZSt4cout(%rip), %rdi
	call	_ZStlsISt11char_traitsIcEERSt13basic_ostreamIcT_ES5_PKc@PLT
.L13:
	movq	$1, -40(%rbp)
.L15:
	movq	-40(%rbp), %rax
	cmpq	-72(%rbp), %rax
	jg	.L14
	movq	-40(%rbp), %rax
	leaq	0(,%rax,8), %rcx
	leaq	ids(%rip), %rdx
	movq	-40(%rbp), %rax
	movq	%rax, (%rcx,%rdx)
	addq	$1, -40(%rbp)
	jmp	.L15
.L14:
	movq	-72(%rbp), %rax
	addq	$1, %rax
	leaq	0(,%rax,8), %rdx
	leaq	ids(%rip), %rax
	addq	%rax, %rdx
	leaq	8+ids(%rip), %rax
	movq	%rdx, %rsi
	movq	%rax, %rdi
	call	_ZSt14random_shuffleIPxEvT_S1_
	movq	$0, -40(%rbp)
.L21:
	movq	-40(%rbp), %rax
	cmpq	-80(%rbp), %rax
	jge	.L9
.L20:
	call	rand@PLT
	cltq
	cqto
	idivq	-72(%rbp)
	movq	%rdx, %rax
	addq	$1, %rax
	movq	%rax, -56(%rbp)
	call	rand@PLT
	cltq
	cqto
	idivq	-72(%rbp)
	movq	%rdx, %rax
	addq	$1, %rax
	movq	%rax, -48(%rbp)
	movq	-56(%rbp), %rdx
	movq	-48(%rbp), %rax
	cmpq	%rax, %rdx
	jge	.L16
	leaq	-48(%rbp), %rdx
	leaq	-56(%rbp), %rax
	movq	%rdx, %rsi
	movq	%rax, %rdi
	call	_ZSt9make_pairIRxS0_ESt4pairINSt17__decay_and_stripIT_E6__typeENS2_IT0_E6__typeEEOS3_OS6_
	movq	%rax, -32(%rbp)
	movq	%rdx, -24(%rbp)
	leaq	-32(%rbp), %rax
	movq	%rax, %rsi
	leaq	existed(%rip), %rdi
	call	_ZNSt3mapISt4pairIxxExSt4lessIS1_ESaIS0_IKS1_xEEEixEOS1_
	movq	(%rax), %rax
	testq	%rax, %rax
	je	.L17
.L16:
	movl	$1, %eax
	jmp	.L18
.L17:
	movl	$0, %eax
.L18:
	testb	%al, %al
	je	.L19
	jmp	.L20
.L19:
	leaq	-48(%rbp), %rdx
	leaq	-56(%rbp), %rax
	movq	%rdx, %rsi
	movq	%rax, %rdi
	call	_ZSt9make_pairIRxS0_ESt4pairINSt17__decay_and_stripIT_E6__typeENS2_IT0_E6__typeEEOS3_OS6_
	movq	%rax, -32(%rbp)
	movq	%rdx, -24(%rbp)
	leaq	-32(%rbp), %rax
	movq	%rax, %rsi
	leaq	existed(%rip), %rdi
	call	_ZNSt3mapISt4pairIxxExSt4lessIS1_ESaIS0_IKS1_xEEEixEOS1_
	movq	$1, (%rax)
	movq	-56(%rbp), %rax
	leaq	0(,%rax,8), %rdx
	leaq	ids(%rip), %rax
	movq	(%rdx,%rax), %rax
	movq	%rax, %rsi
	leaq	_ZSt4cout(%rip), %rdi
	call	_ZNSolsEx@PLT
	movl	$32, %esi
	movq	%rax, %rdi
	call	_ZStlsISt11char_traitsIcEERSt13basic_ostreamIcT_ES5_c@PLT
	movq	%rax, %rdx
	movq	-48(%rbp), %rax
	leaq	0(,%rax,8), %rcx
	leaq	ids(%rip), %rax
	movq	(%rcx,%rax), %rax
	movq	%rax, %rsi
	movq	%rdx, %rdi
	call	_ZNSolsEx@PLT
	movq	%rax, %rdx
	movq	_ZSt4endlIcSt11char_traitsIcEERSt13basic_ostreamIT_T0_ES6_@GOTPCREL(%rip), %rax
	movq	%rax, %rsi
	movq	%rdx, %rdi
	call	_ZNSolsEPFRSoS_E@PLT
	addq	$1, -40(%rbp)
	jmp	.L21
.L9:
	movq	-8(%rbp), %rax
	xorq	%fs:40, %rax
	je	.L22
	call	__stack_chk_fail@PLT
.L22:
	leave
	.cfi_def_cfa 7, 8
	ret
	.cfi_endproc
.LFE8299:
	.size	_Z11generateDAGxx, .-_Z11generateDAGxx
	.section	.text._ZNSt8_Rb_treeISt4pairIxxES0_IKS1_xESt10_Select1stIS3_ESt4lessIS1_ESaIS3_EE13_Rb_tree_implIS7_Lb1EEC2Ev,"axG",@progbits,_ZNSt8_Rb_treeISt4pairIxxES0_IKS1_xESt10_Select1stIS3_ESt4lessIS1_ESaIS3_EE13_Rb_tree_implIS7_Lb1EEC5Ev,comdat
	.align 2
	.weak	_ZNSt8_Rb_treeISt4pairIxxES0_IKS1_xESt10_Select1stIS3_ESt4lessIS1_ESaIS3_EE13_Rb_tree_implIS7_Lb1EEC2Ev
	.type	_ZNSt8_Rb_treeISt4pairIxxES0_IKS1_xESt10_Select1stIS3_ESt4lessIS1_ESaIS3_EE13_Rb_tree_implIS7_Lb1EEC2Ev, @function
_ZNSt8_Rb_treeISt4pairIxxES0_IKS1_xESt10_Select1stIS3_ESt4lessIS1_ESaIS3_EE13_Rb_tree_implIS7_Lb1EEC2Ev:
.LFB8868:
	.cfi_startproc
	endbr64
	pushq	%rbp
	.cfi_def_cfa_offset 16
	.cfi_offset 6, -16
	movq	%rsp, %rbp
	.cfi_def_cfa_register 6
	subq	$16, %rsp
	movq	%rdi, -8(%rbp)
	movq	-8(%rbp), %rax
	movq	%rax, %rdi
	call	_ZNSaISt13_Rb_tree_nodeISt4pairIKS0_IxxExEEEC2Ev
	movq	-8(%rbp), %rax
	movq	%rax, %rdi
	call	_ZNSt20_Rb_tree_key_compareISt4lessISt4pairIxxEEEC2Ev
	movq	-8(%rbp), %rax
	addq	$8, %rax
	movq	%rax, %rdi
	call	_ZNSt15_Rb_tree_headerC2Ev
	nop
	leave
	.cfi_def_cfa 7, 8
	ret
	.cfi_endproc
.LFE8868:
	.size	_ZNSt8_Rb_treeISt4pairIxxES0_IKS1_xESt10_Select1stIS3_ESt4lessIS1_ESaIS3_EE13_Rb_tree_implIS7_Lb1EEC2Ev, .-_ZNSt8_Rb_treeISt4pairIxxES0_IKS1_xESt10_Select1stIS3_ESt4lessIS1_ESaIS3_EE13_Rb_tree_implIS7_Lb1EEC2Ev
	.weak	_ZNSt8_Rb_treeISt4pairIxxES0_IKS1_xESt10_Select1stIS3_ESt4lessIS1_ESaIS3_EE13_Rb_tree_implIS7_Lb1EEC1Ev
	.set	_ZNSt8_Rb_treeISt4pairIxxES0_IKS1_xESt10_Select1stIS3_ESt4lessIS1_ESaIS3_EE13_Rb_tree_implIS7_Lb1EEC1Ev,_ZNSt8_Rb_treeISt4pairIxxES0_IKS1_xESt10_Select1stIS3_ESt4lessIS1_ESaIS3_EE13_Rb_tree_implIS7_Lb1EEC2Ev
	.section	.text._ZNSaISt13_Rb_tree_nodeISt4pairIKS0_IxxExEEED2Ev,"axG",@progbits,_ZNSaISt13_Rb_tree_nodeISt4pairIKS0_IxxExEEED5Ev,comdat
	.align 2
	.weak	_ZNSaISt13_Rb_tree_nodeISt4pairIKS0_IxxExEEED2Ev
	.type	_ZNSaISt13_Rb_tree_nodeISt4pairIKS0_IxxExEEED2Ev, @function
_ZNSaISt13_Rb_tree_nodeISt4pairIKS0_IxxExEEED2Ev:
.LFB8871:
	.cfi_startproc
	endbr64
	pushq	%rbp
	.cfi_def_cfa_offset 16
	.cfi_offset 6, -16
	movq	%rsp, %rbp
	.cfi_def_cfa_register 6
	subq	$16, %rsp
	movq	%rdi, -8(%rbp)
	movq	-8(%rbp), %rax
	movq	%rax, %rdi
	call	_ZN9__gnu_cxx13new_allocatorISt13_Rb_tree_nodeISt4pairIKS2_IxxExEEED2Ev
	nop
	leave
	.cfi_def_cfa 7, 8
	ret
	.cfi_endproc
.LFE8871:
	.size	_ZNSaISt13_Rb_tree_nodeISt4pairIKS0_IxxExEEED2Ev, .-_ZNSaISt13_Rb_tree_nodeISt4pairIKS0_IxxExEEED2Ev
	.weak	_ZNSaISt13_Rb_tree_nodeISt4pairIKS0_IxxExEEED1Ev
	.set	_ZNSaISt13_Rb_tree_nodeISt4pairIKS0_IxxExEEED1Ev,_ZNSaISt13_Rb_tree_nodeISt4pairIKS0_IxxExEEED2Ev
	.section	.text._ZNSt8_Rb_treeISt4pairIxxES0_IKS1_xESt10_Select1stIS3_ESt4lessIS1_ESaIS3_EED2Ev,"axG",@progbits,_ZNSt8_Rb_treeISt4pairIxxES0_IKS1_xESt10_Select1stIS3_ESt4lessIS1_ESaIS3_EED5Ev,comdat
	.align 2
	.weak	_ZNSt8_Rb_treeISt4pairIxxES0_IKS1_xESt10_Select1stIS3_ESt4lessIS1_ESaIS3_EED2Ev
	.type	_ZNSt8_Rb_treeISt4pairIxxES0_IKS1_xESt10_Select1stIS3_ESt4lessIS1_ESaIS3_EED2Ev, @function
_ZNSt8_Rb_treeISt4pairIxxES0_IKS1_xESt10_Select1stIS3_ESt4lessIS1_ESaIS3_EED2Ev:
.LFB8874:
	.cfi_startproc
	.cfi_personality 0x9b,DW.ref.__gxx_personality_v0
	.cfi_lsda 0x1b,.LLSDA8874
	endbr64
	pushq	%rbp
	.cfi_def_cfa_offset 16
	.cfi_offset 6, -16
	movq	%rsp, %rbp
	.cfi_def_cfa_register 6
	subq	$16, %rsp
	movq	%rdi, -8(%rbp)
	movq	-8(%rbp), %rax
	movq	%rax, %rdi
	call	_ZNSt8_Rb_treeISt4pairIxxES0_IKS1_xESt10_Select1stIS3_ESt4lessIS1_ESaIS3_EE8_M_beginEv
	movq	%rax, %rdx
	movq	-8(%rbp), %rax
	movq	%rdx, %rsi
	movq	%rax, %rdi
	call	_ZNSt8_Rb_treeISt4pairIxxES0_IKS1_xESt10_Select1stIS3_ESt4lessIS1_ESaIS3_EE8_M_eraseEPSt13_Rb_tree_nodeIS3_E
	movq	-8(%rbp), %rax
	movq	%rax, %rdi
	call	_ZNSt8_Rb_treeISt4pairIxxES0_IKS1_xESt10_Select1stIS3_ESt4lessIS1_ESaIS3_EE13_Rb_tree_implIS7_Lb1EED1Ev
	nop
	leave
	.cfi_def_cfa 7, 8
	ret
	.cfi_endproc
.LFE8874:
	.globl	__gxx_personality_v0
	.section	.gcc_except_table._ZNSt8_Rb_treeISt4pairIxxES0_IKS1_xESt10_Select1stIS3_ESt4lessIS1_ESaIS3_EED2Ev,"aG",@progbits,_ZNSt8_Rb_treeISt4pairIxxES0_IKS1_xESt10_Select1stIS3_ESt4lessIS1_ESaIS3_EED5Ev,comdat
.LLSDA8874:
	.byte	0xff
	.byte	0xff
	.byte	0x1
	.uleb128 .LLSDACSE8874-.LLSDACSB8874
.LLSDACSB8874:
.LLSDACSE8874:
	.section	.text._ZNSt8_Rb_treeISt4pairIxxES0_IKS1_xESt10_Select1stIS3_ESt4lessIS1_ESaIS3_EED2Ev,"axG",@progbits,_ZNSt8_Rb_treeISt4pairIxxES0_IKS1_xESt10_Select1stIS3_ESt4lessIS1_ESaIS3_EED5Ev,comdat
	.size	_ZNSt8_Rb_treeISt4pairIxxES0_IKS1_xESt10_Select1stIS3_ESt4lessIS1_ESaIS3_EED2Ev, .-_ZNSt8_Rb_treeISt4pairIxxES0_IKS1_xESt10_Select1stIS3_ESt4lessIS1_ESaIS3_EED2Ev
	.weak	_ZNSt8_Rb_treeISt4pairIxxES0_IKS1_xESt10_Select1stIS3_ESt4lessIS1_ESaIS3_EED1Ev
	.set	_ZNSt8_Rb_treeISt4pairIxxES0_IKS1_xESt10_Select1stIS3_ESt4lessIS1_ESaIS3_EED1Ev,_ZNSt8_Rb_treeISt4pairIxxES0_IKS1_xESt10_Select1stIS3_ESt4lessIS1_ESaIS3_EED2Ev
	.section	.text._ZSt14random_shuffleIPxEvT_S1_,"axG",@progbits,_ZSt14random_shuffleIPxEvT_S1_,comdat
	.weak	_ZSt14random_shuffleIPxEvT_S1_
	.type	_ZSt14random_shuffleIPxEvT_S1_, @function
_ZSt14random_shuffleIPxEvT_S1_:
.LFB8877:
	.cfi_startproc
	endbr64
	pushq	%rbp
	.cfi_def_cfa_offset 16
	.cfi_offset 6, -16
	movq	%rsp, %rbp
	.cfi_def_cfa_register 6
	subq	$32, %rsp
	movq	%rdi, -24(%rbp)
	movq	%rsi, -32(%rbp)
	movq	-24(%rbp), %rax
	cmpq	-32(%rbp), %rax
	je	.L30
	movq	-24(%rbp), %rax
	addq	$8, %rax
	movq	%rax, -16(%rbp)
.L29:
	movq	-16(%rbp), %rax
	cmpq	-32(%rbp), %rax
	je	.L30
	call	rand@PLT
	cltq
	movq	-16(%rbp), %rdx
	subq	-24(%rbp), %rdx
	sarq	$3, %rdx
	leaq	1(%rdx), %rcx
	cqto
	idivq	%rcx
	movq	%rdx, %rax
	leaq	0(,%rax,8), %rdx
	movq	-24(%rbp), %rax
	addq	%rdx, %rax
	movq	%rax, -8(%rbp)
	movq	-16(%rbp), %rax
	cmpq	-8(%rbp), %rax
	je	.L28
	movq	-8(%rbp), %rdx
	movq	-16(%rbp), %rax
	movq	%rdx, %rsi
	movq	%rax, %rdi
	call	_ZSt9iter_swapIPxS0_EvT_T0_
.L28:
	addq	$8, -16(%rbp)
	jmp	.L29
.L30:
	nop
	leave
	.cfi_def_cfa 7, 8
	ret
	.cfi_endproc
.LFE8877:
	.size	_ZSt14random_shuffleIPxEvT_S1_, .-_ZSt14random_shuffleIPxEvT_S1_
	.section	.text._ZSt9make_pairIRxS0_ESt4pairINSt17__decay_and_stripIT_E6__typeENS2_IT0_E6__typeEEOS3_OS6_,"axG",@progbits,_ZSt9make_pairIRxS0_ESt4pairINSt17__decay_and_stripIT_E6__typeENS2_IT0_E6__typeEEOS3_OS6_,comdat
	.weak	_ZSt9make_pairIRxS0_ESt4pairINSt17__decay_and_stripIT_E6__typeENS2_IT0_E6__typeEEOS3_OS6_
	.type	_ZSt9make_pairIRxS0_ESt4pairINSt17__decay_and_stripIT_E6__typeENS2_IT0_E6__typeEEOS3_OS6_, @function
_ZSt9make_pairIRxS0_ESt4pairINSt17__decay_and_stripIT_E6__typeENS2_IT0_E6__typeEEOS3_OS6_:
.LFB8878:
	.cfi_startproc
	endbr64
	pushq	%rbp
	.cfi_def_cfa_offset 16
	.cfi_offset 6, -16
	movq	%rsp, %rbp
	.cfi_def_cfa_register 6
	pushq	%rbx
	subq	$56, %rsp
	.cfi_offset 3, -24
	movq	%rdi, -56(%rbp)
	movq	%rsi, -64(%rbp)
	movq	%fs:40, %rax
	movq	%rax, -24(%rbp)
	xorl	%eax, %eax
	movq	-64(%rbp), %rax
	movq	%rax, %rdi
	call	_ZSt7forwardIRxEOT_RNSt16remove_referenceIS1_E4typeE
	movq	%rax, %rbx
	movq	-56(%rbp), %rax
	movq	%rax, %rdi
	call	_ZSt7forwardIRxEOT_RNSt16remove_referenceIS1_E4typeE
	movq	%rax, %rcx
	leaq	-48(%rbp), %rax
	movq	%rbx, %rdx
	movq	%rcx, %rsi
	movq	%rax, %rdi
	call	_ZNSt4pairIxxEC1IRxS2_Lb1EEEOT_OT0_
	movq	-48(%rbp), %rax
	movq	-40(%rbp), %rdx
	movq	-24(%rbp), %rcx
	xorq	%fs:40, %rcx
	je	.L33
	call	__stack_chk_fail@PLT
.L33:
	addq	$56, %rsp
	popq	%rbx
	popq	%rbp
	.cfi_def_cfa 7, 8
	ret
	.cfi_endproc
.LFE8878:
	.size	_ZSt9make_pairIRxS0_ESt4pairINSt17__decay_and_stripIT_E6__typeENS2_IT0_E6__typeEEOS3_OS6_, .-_ZSt9make_pairIRxS0_ESt4pairINSt17__decay_and_stripIT_E6__typeENS2_IT0_E6__typeEEOS3_OS6_
	.section	.text._ZNSt3mapISt4pairIxxExSt4lessIS1_ESaIS0_IKS1_xEEEixEOS1_,"axG",@progbits,_ZNSt3mapISt4pairIxxExSt4lessIS1_ESaIS0_IKS1_xEEEixEOS1_,comdat
	.align 2
	.weak	_ZNSt3mapISt4pairIxxExSt4lessIS1_ESaIS0_IKS1_xEEEixEOS1_
	.type	_ZNSt3mapISt4pairIxxExSt4lessIS1_ESaIS0_IKS1_xEEEixEOS1_, @function
_ZNSt3mapISt4pairIxxExSt4lessIS1_ESaIS0_IKS1_xEEEixEOS1_:
.LFB8891:
	.cfi_startproc
	.cfi_personality 0x9b,DW.ref.__gxx_personality_v0
	.cfi_lsda 0x1b,.LLSDA8891
	endbr64
	pushq	%rbp
	.cfi_def_cfa_offset 16
	.cfi_offset 6, -16
	movq	%rsp, %rbp
	.cfi_def_cfa_register 6
	pushq	%rbx
	subq	$72, %rsp
	.cfi_offset 3, -24
	movq	%rdi, -72(%rbp)
	movq	%rsi, -80(%rbp)
	movq	%fs:40, %rax
	movq	%rax, -24(%rbp)
	xorl	%eax, %eax
	movq	-80(%rbp), %rdx
	movq	-72(%rbp), %rax
	movq	%rdx, %rsi
	movq	%rax, %rdi
.LEHB0:
	call	_ZNSt3mapISt4pairIxxExSt4lessIS1_ESaIS0_IKS1_xEEE11lower_boundERS4_
.LEHE0:
	movq	%rax, -48(%rbp)
	movq	-72(%rbp), %rax
	movq	%rax, %rdi
	call	_ZNSt3mapISt4pairIxxExSt4lessIS1_ESaIS0_IKS1_xEEE3endEv
	movq	%rax, -32(%rbp)
	leaq	-32(%rbp), %rdx
	leaq	-48(%rbp), %rax
	movq	%rdx, %rsi
	movq	%rax, %rdi
	call	_ZSteqRKSt17_Rb_tree_iteratorISt4pairIKS0_IxxExEES6_
	testb	%al, %al
	jne	.L35
	movq	-72(%rbp), %rax
	movq	%rax, %rdi
.LEHB1:
	call	_ZNKSt3mapISt4pairIxxExSt4lessIS1_ESaIS0_IKS1_xEEE8key_compEv
	leaq	-48(%rbp), %rax
	movq	%rax, %rdi
	call	_ZNKSt17_Rb_tree_iteratorISt4pairIKS0_IxxExEEdeEv
	movq	%rax, %rdx
	movq	-80(%rbp), %rcx
	leaq	-40(%rbp), %rax
	movq	%rcx, %rsi
	movq	%rax, %rdi
	call	_ZNKSt4lessISt4pairIxxEEclERKS1_S4_
.LEHE1:
	testb	%al, %al
	je	.L36
.L35:
	movl	$1, %eax
	jmp	.L37
.L36:
	movl	$0, %eax
.L37:
	testb	%al, %al
	je	.L38
	movq	-72(%rbp), %rbx
	movq	-80(%rbp), %rax
	movq	%rax, %rdi
	call	_ZSt4moveIRSt4pairIxxEEONSt16remove_referenceIT_E4typeEOS4_
	movq	%rax, %rdx
	leaq	-40(%rbp), %rax
	movq	%rdx, %rsi
	movq	%rax, %rdi
	call	_ZSt16forward_as_tupleIJSt4pairIxxEEESt5tupleIJDpOT_EES5_
	leaq	-48(%rbp), %rdx
	leaq	-32(%rbp), %rax
	movq	%rdx, %rsi
	movq	%rax, %rdi
	call	_ZNSt23_Rb_tree_const_iteratorISt4pairIKS0_IxxExEEC1ERKSt17_Rb_tree_iteratorIS3_E
	leaq	-49(%rbp), %rcx
	leaq	-40(%rbp), %rdx
	movq	-32(%rbp), %rax
	movq	%rcx, %r8
	movq	%rdx, %rcx
	leaq	_ZStL19piecewise_construct(%rip), %rdx
	movq	%rax, %rsi
	movq	%rbx, %rdi
.LEHB2:
	call	_ZNSt8_Rb_treeISt4pairIxxES0_IKS1_xESt10_Select1stIS3_ESt4lessIS1_ESaIS3_EE22_M_emplace_hint_uniqueIJRKSt21piecewise_construct_tSt5tupleIJOS1_EESE_IJEEEEESt17_Rb_tree_iteratorIS3_ESt23_Rb_tree_const_iteratorIS3_EDpOT_
	movq	%rax, -48(%rbp)
.L38:
	leaq	-48(%rbp), %rax
	movq	%rax, %rdi
	call	_ZNKSt17_Rb_tree_iteratorISt4pairIKS0_IxxExEEdeEv
	addq	$16, %rax
	movq	-24(%rbp), %rbx
	xorq	%fs:40, %rbx
	je	.L41
	jmp	.L43
.L42:
	endbr64
	movq	%rax, %rdi
	call	_Unwind_Resume@PLT
.LEHE2:
.L43:
	call	__stack_chk_fail@PLT
.L41:
	addq	$72, %rsp
	popq	%rbx
	popq	%rbp
	.cfi_def_cfa 7, 8
	ret
	.cfi_endproc
.LFE8891:
	.section	.gcc_except_table._ZNSt3mapISt4pairIxxExSt4lessIS1_ESaIS0_IKS1_xEEEixEOS1_,"aG",@progbits,_ZNSt3mapISt4pairIxxExSt4lessIS1_ESaIS0_IKS1_xEEEixEOS1_,comdat
.LLSDA8891:
	.byte	0xff
	.byte	0xff
	.byte	0x1
	.uleb128 .LLSDACSE8891-.LLSDACSB8891
.LLSDACSB8891:
	.uleb128 .LEHB0-.LFB8891
	.uleb128 .LEHE0-.LEHB0
	.uleb128 0
	.uleb128 0
	.uleb128 .LEHB1-.LFB8891
	.uleb128 .LEHE1-.LEHB1
	.uleb128 .L42-.LFB8891
	.uleb128 0
	.uleb128 .LEHB2-.LFB8891
	.uleb128 .LEHE2-.LEHB2
	.uleb128 0
	.uleb128 0
.LLSDACSE8891:
	.section	.text._ZNSt3mapISt4pairIxxExSt4lessIS1_ESaIS0_IKS1_xEEEixEOS1_,"axG",@progbits,_ZNSt3mapISt4pairIxxExSt4lessIS1_ESaIS0_IKS1_xEEEixEOS1_,comdat
	.size	_ZNSt3mapISt4pairIxxExSt4lessIS1_ESaIS0_IKS1_xEEEixEOS1_, .-_ZNSt3mapISt4pairIxxExSt4lessIS1_ESaIS0_IKS1_xEEEixEOS1_
	.section	.text._ZNSaISt13_Rb_tree_nodeISt4pairIKS0_IxxExEEEC2Ev,"axG",@progbits,_ZNSaISt13_Rb_tree_nodeISt4pairIKS0_IxxExEEEC5Ev,comdat
	.align 2
	.weak	_ZNSaISt13_Rb_tree_nodeISt4pairIKS0_IxxExEEEC2Ev
	.type	_ZNSaISt13_Rb_tree_nodeISt4pairIKS0_IxxExEEEC2Ev, @function
_ZNSaISt13_Rb_tree_nodeISt4pairIKS0_IxxExEEEC2Ev:
.LFB9165:
	.cfi_startproc
	endbr64
	pushq	%rbp
	.cfi_def_cfa_offset 16
	.cfi_offset 6, -16
	movq	%rsp, %rbp
	.cfi_def_cfa_register 6
	subq	$16, %rsp
	movq	%rdi, -8(%rbp)
	movq	-8(%rbp), %rax
	movq	%rax, %rdi
	call	_ZN9__gnu_cxx13new_allocatorISt13_Rb_tree_nodeISt4pairIKS2_IxxExEEEC2Ev
	nop
	leave
	.cfi_def_cfa 7, 8
	ret
	.cfi_endproc
.LFE9165:
	.size	_ZNSaISt13_Rb_tree_nodeISt4pairIKS0_IxxExEEEC2Ev, .-_ZNSaISt13_Rb_tree_nodeISt4pairIKS0_IxxExEEEC2Ev
	.weak	_ZNSaISt13_Rb_tree_nodeISt4pairIKS0_IxxExEEEC1Ev
	.set	_ZNSaISt13_Rb_tree_nodeISt4pairIKS0_IxxExEEEC1Ev,_ZNSaISt13_Rb_tree_nodeISt4pairIKS0_IxxExEEEC2Ev
	.section	.text._ZNSt20_Rb_tree_key_compareISt4lessISt4pairIxxEEEC2Ev,"axG",@progbits,_ZNSt20_Rb_tree_key_compareISt4lessISt4pairIxxEEEC5Ev,comdat
	.align 2
	.weak	_ZNSt20_Rb_tree_key_compareISt4lessISt4pairIxxEEEC2Ev
	.type	_ZNSt20_Rb_tree_key_compareISt4lessISt4pairIxxEEEC2Ev, @function
_ZNSt20_Rb_tree_key_compareISt4lessISt4pairIxxEEEC2Ev:
.LFB9168:
	.cfi_startproc
	endbr64
	pushq	%rbp
	.cfi_def_cfa_offset 16
	.cfi_offset 6, -16
	movq	%rsp, %rbp
	.cfi_def_cfa_register 6
	movq	%rdi, -8(%rbp)
	nop
	popq	%rbp
	.cfi_def_cfa 7, 8
	ret
	.cfi_endproc
.LFE9168:
	.size	_ZNSt20_Rb_tree_key_compareISt4lessISt4pairIxxEEEC2Ev, .-_ZNSt20_Rb_tree_key_compareISt4lessISt4pairIxxEEEC2Ev
	.weak	_ZNSt20_Rb_tree_key_compareISt4lessISt4pairIxxEEEC1Ev
	.set	_ZNSt20_Rb_tree_key_compareISt4lessISt4pairIxxEEEC1Ev,_ZNSt20_Rb_tree_key_compareISt4lessISt4pairIxxEEEC2Ev
	.section	.text._ZN9__gnu_cxx13new_allocatorISt13_Rb_tree_nodeISt4pairIKS2_IxxExEEED2Ev,"axG",@progbits,_ZN9__gnu_cxx13new_allocatorISt13_Rb_tree_nodeISt4pairIKS2_IxxExEEED5Ev,comdat
	.align 2
	.weak	_ZN9__gnu_cxx13new_allocatorISt13_Rb_tree_nodeISt4pairIKS2_IxxExEEED2Ev
	.type	_ZN9__gnu_cxx13new_allocatorISt13_Rb_tree_nodeISt4pairIKS2_IxxExEEED2Ev, @function
_ZN9__gnu_cxx13new_allocatorISt13_Rb_tree_nodeISt4pairIKS2_IxxExEEED2Ev:
.LFB9171:
	.cfi_startproc
	endbr64
	pushq	%rbp
	.cfi_def_cfa_offset 16
	.cfi_offset 6, -16
	movq	%rsp, %rbp
	.cfi_def_cfa_register 6
	movq	%rdi, -8(%rbp)
	nop
	popq	%rbp
	.cfi_def_cfa 7, 8
	ret
	.cfi_endproc
.LFE9171:
	.size	_ZN9__gnu_cxx13new_allocatorISt13_Rb_tree_nodeISt4pairIKS2_IxxExEEED2Ev, .-_ZN9__gnu_cxx13new_allocatorISt13_Rb_tree_nodeISt4pairIKS2_IxxExEEED2Ev
	.weak	_ZN9__gnu_cxx13new_allocatorISt13_Rb_tree_nodeISt4pairIKS2_IxxExEEED1Ev
	.set	_ZN9__gnu_cxx13new_allocatorISt13_Rb_tree_nodeISt4pairIKS2_IxxExEEED1Ev,_ZN9__gnu_cxx13new_allocatorISt13_Rb_tree_nodeISt4pairIKS2_IxxExEEED2Ev
	.section	.text._ZNSt8_Rb_treeISt4pairIxxES0_IKS1_xESt10_Select1stIS3_ESt4lessIS1_ESaIS3_EE8_M_eraseEPSt13_Rb_tree_nodeIS3_E,"axG",@progbits,_ZNSt8_Rb_treeISt4pairIxxES0_IKS1_xESt10_Select1stIS3_ESt4lessIS1_ESaIS3_EE8_M_eraseEPSt13_Rb_tree_nodeIS3_E,comdat
	.align 2
	.weak	_ZNSt8_Rb_treeISt4pairIxxES0_IKS1_xESt10_Select1stIS3_ESt4lessIS1_ESaIS3_EE8_M_eraseEPSt13_Rb_tree_nodeIS3_E
	.type	_ZNSt8_Rb_treeISt4pairIxxES0_IKS1_xESt10_Select1stIS3_ESt4lessIS1_ESaIS3_EE8_M_eraseEPSt13_Rb_tree_nodeIS3_E, @function
_ZNSt8_Rb_treeISt4pairIxxES0_IKS1_xESt10_Select1stIS3_ESt4lessIS1_ESaIS3_EE8_M_eraseEPSt13_Rb_tree_nodeIS3_E:
.LFB9173:
	.cfi_startproc
	endbr64
	pushq	%rbp
	.cfi_def_cfa_offset 16
	.cfi_offset 6, -16
	movq	%rsp, %rbp
	.cfi_def_cfa_register 6
	subq	$32, %rsp
	movq	%rdi, -24(%rbp)
	movq	%rsi, -32(%rbp)
.L49:
	cmpq	$0, -32(%rbp)
	je	.L50
	movq	-32(%rbp), %rax
	movq	%rax, %rdi
	call	_ZNSt8_Rb_treeISt4pairIxxES0_IKS1_xESt10_Select1stIS3_ESt4lessIS1_ESaIS3_EE8_S_rightEPSt18_Rb_tree_node_base
	movq	%rax, %rdx
	movq	-24(%rbp), %rax
	movq	%rdx, %rsi
	movq	%rax, %rdi
	call	_ZNSt8_Rb_treeISt4pairIxxES0_IKS1_xESt10_Select1stIS3_ESt4lessIS1_ESaIS3_EE8_M_eraseEPSt13_Rb_tree_nodeIS3_E
	movq	-32(%rbp), %rax
	movq	%rax, %rdi
	call	_ZNSt8_Rb_treeISt4pairIxxES0_IKS1_xESt10_Select1stIS3_ESt4lessIS1_ESaIS3_EE7_S_leftEPSt18_Rb_tree_node_base
	movq	%rax, -8(%rbp)
	movq	-32(%rbp), %rdx
	movq	-24(%rbp), %rax
	movq	%rdx, %rsi
	movq	%rax, %rdi
	call	_ZNSt8_Rb_treeISt4pairIxxES0_IKS1_xESt10_Select1stIS3_ESt4lessIS1_ESaIS3_EE12_M_drop_nodeEPSt13_Rb_tree_nodeIS3_E
	movq	-8(%rbp), %rax
	movq	%rax, -32(%rbp)
	jmp	.L49
.L50:
	nop
	leave
	.cfi_def_cfa 7, 8
	ret
	.cfi_endproc
.LFE9173:
	.size	_ZNSt8_Rb_treeISt4pairIxxES0_IKS1_xESt10_Select1stIS3_ESt4lessIS1_ESaIS3_EE8_M_eraseEPSt13_Rb_tree_nodeIS3_E, .-_ZNSt8_Rb_treeISt4pairIxxES0_IKS1_xESt10_Select1stIS3_ESt4lessIS1_ESaIS3_EE8_M_eraseEPSt13_Rb_tree_nodeIS3_E
	.section	.text._ZNSt8_Rb_treeISt4pairIxxES0_IKS1_xESt10_Select1stIS3_ESt4lessIS1_ESaIS3_EE8_M_beginEv,"axG",@progbits,_ZNSt8_Rb_treeISt4pairIxxES0_IKS1_xESt10_Select1stIS3_ESt4lessIS1_ESaIS3_EE8_M_beginEv,comdat
	.align 2
	.weak	_ZNSt8_Rb_treeISt4pairIxxES0_IKS1_xESt10_Select1stIS3_ESt4lessIS1_ESaIS3_EE8_M_beginEv
	.type	_ZNSt8_Rb_treeISt4pairIxxES0_IKS1_xESt10_Select1stIS3_ESt4lessIS1_ESaIS3_EE8_M_beginEv, @function
_ZNSt8_Rb_treeISt4pairIxxES0_IKS1_xESt10_Select1stIS3_ESt4lessIS1_ESaIS3_EE8_M_beginEv:
.LFB9174:
	.cfi_startproc
	endbr64
	pushq	%rbp
	.cfi_def_cfa_offset 16
	.cfi_offset 6, -16
	movq	%rsp, %rbp
	.cfi_def_cfa_register 6
	movq	%rdi, -8(%rbp)
	movq	-8(%rbp), %rax
	movq	16(%rax), %rax
	popq	%rbp
	.cfi_def_cfa 7, 8
	ret
	.cfi_endproc
.LFE9174:
	.size	_ZNSt8_Rb_treeISt4pairIxxES0_IKS1_xESt10_Select1stIS3_ESt4lessIS1_ESaIS3_EE8_M_beginEv, .-_ZNSt8_Rb_treeISt4pairIxxES0_IKS1_xESt10_Select1stIS3_ESt4lessIS1_ESaIS3_EE8_M_beginEv
	.section	.text._ZSt9iter_swapIPxS0_EvT_T0_,"axG",@progbits,_ZSt9iter_swapIPxS0_EvT_T0_,comdat
	.weak	_ZSt9iter_swapIPxS0_EvT_T0_
	.type	_ZSt9iter_swapIPxS0_EvT_T0_, @function
_ZSt9iter_swapIPxS0_EvT_T0_:
.LFB9176:
	.cfi_startproc
	endbr64
	pushq	%rbp
	.cfi_def_cfa_offset 16
	.cfi_offset 6, -16
	movq	%rsp, %rbp
	.cfi_def_cfa_register 6
	subq	$16, %rsp
	movq	%rdi, -8(%rbp)
	movq	%rsi, -16(%rbp)
	movq	-16(%rbp), %rdx
	movq	-8(%rbp), %rax
	movq	%rdx, %rsi
	movq	%rax, %rdi
	call	_ZSt4swapIxENSt9enable_ifIXsrSt6__and_IJSt6__not_ISt15__is_tuple_likeIT_EESt21is_move_constructibleIS4_ESt18is_move_assignableIS4_EEE5valueEvE4typeERS4_SE_
	nop
	leave
	.cfi_def_cfa 7, 8
	ret
	.cfi_endproc
.LFE9176:
	.size	_ZSt9iter_swapIPxS0_EvT_T0_, .-_ZSt9iter_swapIPxS0_EvT_T0_
	.section	.text._ZSt7forwardIRxEOT_RNSt16remove_referenceIS1_E4typeE,"axG",@progbits,_ZSt7forwardIRxEOT_RNSt16remove_referenceIS1_E4typeE,comdat
	.weak	_ZSt7forwardIRxEOT_RNSt16remove_referenceIS1_E4typeE
	.type	_ZSt7forwardIRxEOT_RNSt16remove_referenceIS1_E4typeE, @function
_ZSt7forwardIRxEOT_RNSt16remove_referenceIS1_E4typeE:
.LFB9177:
	.cfi_startproc
	endbr64
	pushq	%rbp
	.cfi_def_cfa_offset 16
	.cfi_offset 6, -16
	movq	%rsp, %rbp
	.cfi_def_cfa_register 6
	movq	%rdi, -8(%rbp)
	movq	-8(%rbp), %rax
	popq	%rbp
	.cfi_def_cfa 7, 8
	ret
	.cfi_endproc
.LFE9177:
	.size	_ZSt7forwardIRxEOT_RNSt16remove_referenceIS1_E4typeE, .-_ZSt7forwardIRxEOT_RNSt16remove_referenceIS1_E4typeE
	.section	.text._ZNSt4pairIxxEC2IRxS2_Lb1EEEOT_OT0_,"axG",@progbits,_ZNSt4pairIxxEC5IRxS2_Lb1EEEOT_OT0_,comdat
	.align 2
	.weak	_ZNSt4pairIxxEC2IRxS2_Lb1EEEOT_OT0_
	.type	_ZNSt4pairIxxEC2IRxS2_Lb1EEEOT_OT0_, @function
_ZNSt4pairIxxEC2IRxS2_Lb1EEEOT_OT0_:
.LFB9179:
	.cfi_startproc
	endbr64
	pushq	%rbp
	.cfi_def_cfa_offset 16
	.cfi_offset 6, -16
	movq	%rsp, %rbp
	.cfi_def_cfa_register 6
	subq	$32, %rsp
	movq	%rdi, -8(%rbp)
	movq	%rsi, -16(%rbp)
	movq	%rdx, -24(%rbp)
	movq	-16(%rbp), %rax
	movq	%rax, %rdi
	call	_ZSt7forwardIRxEOT_RNSt16remove_referenceIS1_E4typeE
	movq	(%rax), %rdx
	movq	-8(%rbp), %rax
	movq	%rdx, (%rax)
	movq	-24(%rbp), %rax
	movq	%rax, %rdi
	call	_ZSt7forwardIRxEOT_RNSt16remove_referenceIS1_E4typeE
	movq	(%rax), %rdx
	movq	-8(%rbp), %rax
	movq	%rdx, 8(%rax)
	nop
	leave
	.cfi_def_cfa 7, 8
	ret
	.cfi_endproc
.LFE9179:
	.size	_ZNSt4pairIxxEC2IRxS2_Lb1EEEOT_OT0_, .-_ZNSt4pairIxxEC2IRxS2_Lb1EEEOT_OT0_
	.weak	_ZNSt4pairIxxEC1IRxS2_Lb1EEEOT_OT0_
	.set	_ZNSt4pairIxxEC1IRxS2_Lb1EEEOT_OT0_,_ZNSt4pairIxxEC2IRxS2_Lb1EEEOT_OT0_
	.section	.text._ZNSt3mapISt4pairIxxExSt4lessIS1_ESaIS0_IKS1_xEEE11lower_boundERS4_,"axG",@progbits,_ZNSt3mapISt4pairIxxExSt4lessIS1_ESaIS0_IKS1_xEEE11lower_boundERS4_,comdat
	.align 2
	.weak	_ZNSt3mapISt4pairIxxExSt4lessIS1_ESaIS0_IKS1_xEEE11lower_boundERS4_
	.type	_ZNSt3mapISt4pairIxxExSt4lessIS1_ESaIS0_IKS1_xEEE11lower_boundERS4_, @function
_ZNSt3mapISt4pairIxxExSt4lessIS1_ESaIS0_IKS1_xEEE11lower_boundERS4_:
.LFB9181:
	.cfi_startproc
	endbr64
	pushq	%rbp
	.cfi_def_cfa_offset 16
	.cfi_offset 6, -16
	movq	%rsp, %rbp
	.cfi_def_cfa_register 6
	subq	$16, %rsp
	movq	%rdi, -8(%rbp)
	movq	%rsi, -16(%rbp)
	movq	-8(%rbp), %rax
	movq	-16(%rbp), %rdx
	movq	%rdx, %rsi
	movq	%rax, %rdi
	call	_ZNSt8_Rb_treeISt4pairIxxES0_IKS1_xESt10_Select1stIS3_ESt4lessIS1_ESaIS3_EE11lower_boundERS2_
	leave
	.cfi_def_cfa 7, 8
	ret
	.cfi_endproc
.LFE9181:
	.size	_ZNSt3mapISt4pairIxxExSt4lessIS1_ESaIS0_IKS1_xEEE11lower_boundERS4_, .-_ZNSt3mapISt4pairIxxExSt4lessIS1_ESaIS0_IKS1_xEEE11lower_boundERS4_
	.section	.text._ZNSt3mapISt4pairIxxExSt4lessIS1_ESaIS0_IKS1_xEEE3endEv,"axG",@progbits,_ZNSt3mapISt4pairIxxExSt4lessIS1_ESaIS0_IKS1_xEEE3endEv,comdat
	.align 2
	.weak	_ZNSt3mapISt4pairIxxExSt4lessIS1_ESaIS0_IKS1_xEEE3endEv
	.type	_ZNSt3mapISt4pairIxxExSt4lessIS1_ESaIS0_IKS1_xEEE3endEv, @function
_ZNSt3mapISt4pairIxxExSt4lessIS1_ESaIS0_IKS1_xEEE3endEv:
.LFB9182:
	.cfi_startproc
	endbr64
	pushq	%rbp
	.cfi_def_cfa_offset 16
	.cfi_offset 6, -16
	movq	%rsp, %rbp
	.cfi_def_cfa_register 6
	subq	$16, %rsp
	movq	%rdi, -8(%rbp)
	movq	-8(%rbp), %rax
	movq	%rax, %rdi
	call	_ZNSt8_Rb_treeISt4pairIxxES0_IKS1_xESt10_Select1stIS3_ESt4lessIS1_ESaIS3_EE3endEv
	leave
	.cfi_def_cfa 7, 8
	ret
	.cfi_endproc
.LFE9182:
	.size	_ZNSt3mapISt4pairIxxExSt4lessIS1_ESaIS0_IKS1_xEEE3endEv, .-_ZNSt3mapISt4pairIxxExSt4lessIS1_ESaIS0_IKS1_xEEE3endEv
	.section	.text._ZSteqRKSt17_Rb_tree_iteratorISt4pairIKS0_IxxExEES6_,"axG",@progbits,_ZSteqRKSt17_Rb_tree_iteratorISt4pairIKS0_IxxExEES6_,comdat
	.weak	_ZSteqRKSt17_Rb_tree_iteratorISt4pairIKS0_IxxExEES6_
	.type	_ZSteqRKSt17_Rb_tree_iteratorISt4pairIKS0_IxxExEES6_, @function
_ZSteqRKSt17_Rb_tree_iteratorISt4pairIKS0_IxxExEES6_:
.LFB9183:
	.cfi_startproc
	endbr64
	pushq	%rbp
	.cfi_def_cfa_offset 16
	.cfi_offset 6, -16
	movq	%rsp, %rbp
	.cfi_def_cfa_register 6
	movq	%rdi, -8(%rbp)
	movq	%rsi, -16(%rbp)
	movq	-8(%rbp), %rax
	movq	(%rax), %rdx
	movq	-16(%rbp), %rax
	movq	(%rax), %rax
	cmpq	%rax, %rdx
	sete	%al
	popq	%rbp
	.cfi_def_cfa 7, 8
	ret
	.cfi_endproc
.LFE9183:
	.size	_ZSteqRKSt17_Rb_tree_iteratorISt4pairIKS0_IxxExEES6_, .-_ZSteqRKSt17_Rb_tree_iteratorISt4pairIKS0_IxxExEES6_
	.section	.text._ZNKSt3mapISt4pairIxxExSt4lessIS1_ESaIS0_IKS1_xEEE8key_compEv,"axG",@progbits,_ZNKSt3mapISt4pairIxxExSt4lessIS1_ESaIS0_IKS1_xEEE8key_compEv,comdat
	.align 2
	.weak	_ZNKSt3mapISt4pairIxxExSt4lessIS1_ESaIS0_IKS1_xEEE8key_compEv
	.type	_ZNKSt3mapISt4pairIxxExSt4lessIS1_ESaIS0_IKS1_xEEE8key_compEv, @function
_ZNKSt3mapISt4pairIxxExSt4lessIS1_ESaIS0_IKS1_xEEE8key_compEv:
.LFB9184:
	.cfi_startproc
	endbr64
	pushq	%rbp
	.cfi_def_cfa_offset 16
	.cfi_offset 6, -16
	movq	%rsp, %rbp
	.cfi_def_cfa_register 6
	pushq	%rbx
	subq	$24, %rsp
	.cfi_offset 3, -24
	movq	%rdi, -24(%rbp)
	movq	-24(%rbp), %rax
	movq	%rax, %rdi
	call	_ZNKSt8_Rb_treeISt4pairIxxES0_IKS1_xESt10_Select1stIS3_ESt4lessIS1_ESaIS3_EE8key_compEv
	movl	%ebx, %eax
	addq	$24, %rsp
	popq	%rbx
	popq	%rbp
	.cfi_def_cfa 7, 8
	ret
	.cfi_endproc
.LFE9184:
	.size	_ZNKSt3mapISt4pairIxxExSt4lessIS1_ESaIS0_IKS1_xEEE8key_compEv, .-_ZNKSt3mapISt4pairIxxExSt4lessIS1_ESaIS0_IKS1_xEEE8key_compEv
	.section	.text._ZNKSt17_Rb_tree_iteratorISt4pairIKS0_IxxExEEdeEv,"axG",@progbits,_ZNKSt17_Rb_tree_iteratorISt4pairIKS0_IxxExEEdeEv,comdat
	.align 2
	.weak	_ZNKSt17_Rb_tree_iteratorISt4pairIKS0_IxxExEEdeEv
	.type	_ZNKSt17_Rb_tree_iteratorISt4pairIKS0_IxxExEEdeEv, @function
_ZNKSt17_Rb_tree_iteratorISt4pairIKS0_IxxExEEdeEv:
.LFB9185:
	.cfi_startproc
	endbr64
	pushq	%rbp
	.cfi_def_cfa_offset 16
	.cfi_offset 6, -16
	movq	%rsp, %rbp
	.cfi_def_cfa_register 6
	subq	$16, %rsp
	movq	%rdi, -8(%rbp)
	movq	-8(%rbp), %rax
	movq	(%rax), %rax
	movq	%rax, %rdi
	call	_ZNSt13_Rb_tree_nodeISt4pairIKS0_IxxExEE9_M_valptrEv
	leave
	.cfi_def_cfa 7, 8
	ret
	.cfi_endproc
.LFE9185:
	.size	_ZNKSt17_Rb_tree_iteratorISt4pairIKS0_IxxExEEdeEv, .-_ZNKSt17_Rb_tree_iteratorISt4pairIKS0_IxxExEEdeEv
	.section	.text._ZNKSt4lessISt4pairIxxEEclERKS1_S4_,"axG",@progbits,_ZNKSt4lessISt4pairIxxEEclERKS1_S4_,comdat
	.align 2
	.weak	_ZNKSt4lessISt4pairIxxEEclERKS1_S4_
	.type	_ZNKSt4lessISt4pairIxxEEclERKS1_S4_, @function
_ZNKSt4lessISt4pairIxxEEclERKS1_S4_:
.LFB9186:
	.cfi_startproc
	endbr64
	pushq	%rbp
	.cfi_def_cfa_offset 16
	.cfi_offset 6, -16
	movq	%rsp, %rbp
	.cfi_def_cfa_register 6
	subq	$32, %rsp
	movq	%rdi, -8(%rbp)
	movq	%rsi, -16(%rbp)
	movq	%rdx, -24(%rbp)
	movq	-24(%rbp), %rdx
	movq	-16(%rbp), %rax
	movq	%rdx, %rsi
	movq	%rax, %rdi
	call	_ZStltIxxEbRKSt4pairIT_T0_ES5_
	leave
	.cfi_def_cfa 7, 8
	ret
	.cfi_endproc
.LFE9186:
	.size	_ZNKSt4lessISt4pairIxxEEclERKS1_S4_, .-_ZNKSt4lessISt4pairIxxEEclERKS1_S4_
	.section	.text._ZSt4moveIRSt4pairIxxEEONSt16remove_referenceIT_E4typeEOS4_,"axG",@progbits,_ZSt4moveIRSt4pairIxxEEONSt16remove_referenceIT_E4typeEOS4_,comdat
	.weak	_ZSt4moveIRSt4pairIxxEEONSt16remove_referenceIT_E4typeEOS4_
	.type	_ZSt4moveIRSt4pairIxxEEONSt16remove_referenceIT_E4typeEOS4_, @function
_ZSt4moveIRSt4pairIxxEEONSt16remove_referenceIT_E4typeEOS4_:
.LFB9187:
	.cfi_startproc
	endbr64
	pushq	%rbp
	.cfi_def_cfa_offset 16
	.cfi_offset 6, -16
	movq	%rsp, %rbp
	.cfi_def_cfa_register 6
	movq	%rdi, -8(%rbp)
	movq	-8(%rbp), %rax
	popq	%rbp
	.cfi_def_cfa 7, 8
	ret
	.cfi_endproc
.LFE9187:
	.size	_ZSt4moveIRSt4pairIxxEEONSt16remove_referenceIT_E4typeEOS4_, .-_ZSt4moveIRSt4pairIxxEEONSt16remove_referenceIT_E4typeEOS4_
	.section	.text._ZNSt5tupleIJOSt4pairIxxEEEC2EOS3_,"axG",@progbits,_ZNSt5tupleIJOSt4pairIxxEEEC5EOS3_,comdat
	.align 2
	.weak	_ZNSt5tupleIJOSt4pairIxxEEEC2EOS3_
	.type	_ZNSt5tupleIJOSt4pairIxxEEEC2EOS3_, @function
_ZNSt5tupleIJOSt4pairIxxEEEC2EOS3_:
.LFB9204:
	.cfi_startproc
	endbr64
	pushq	%rbp
	.cfi_def_cfa_offset 16
	.cfi_offset 6, -16
	movq	%rsp, %rbp
	.cfi_def_cfa_register 6
	subq	$16, %rsp
	movq	%rdi, -8(%rbp)
	movq	%rsi, -16(%rbp)
	movq	-8(%rbp), %rax
	movq	-16(%rbp), %rdx
	movq	%rdx, %rsi
	movq	%rax, %rdi
	call	_ZNSt11_Tuple_implILm0EJOSt4pairIxxEEEC2EOS3_
	nop
	leave
	.cfi_def_cfa 7, 8
	ret
	.cfi_endproc
.LFE9204:
	.size	_ZNSt5tupleIJOSt4pairIxxEEEC2EOS3_, .-_ZNSt5tupleIJOSt4pairIxxEEEC2EOS3_
	.weak	_ZNSt5tupleIJOSt4pairIxxEEEC1EOS3_
	.set	_ZNSt5tupleIJOSt4pairIxxEEEC1EOS3_,_ZNSt5tupleIJOSt4pairIxxEEEC2EOS3_
	.section	.text._ZSt16forward_as_tupleIJSt4pairIxxEEESt5tupleIJDpOT_EES5_,"axG",@progbits,_ZSt16forward_as_tupleIJSt4pairIxxEEESt5tupleIJDpOT_EES5_,comdat
	.weak	_ZSt16forward_as_tupleIJSt4pairIxxEEESt5tupleIJDpOT_EES5_
	.type	_ZSt16forward_as_tupleIJSt4pairIxxEEESt5tupleIJDpOT_EES5_, @function
_ZSt16forward_as_tupleIJSt4pairIxxEEESt5tupleIJDpOT_EES5_:
.LFB9188:
	.cfi_startproc
	.cfi_personality 0x9b,DW.ref.__gxx_personality_v0
	.cfi_lsda 0x1b,.LLSDA9188
	endbr64
	pushq	%rbp
	.cfi_def_cfa_offset 16
	.cfi_offset 6, -16
	movq	%rsp, %rbp
	.cfi_def_cfa_register 6
	subq	$16, %rsp
	movq	%rdi, -8(%rbp)
	movq	%rsi, -16(%rbp)
	movq	-16(%rbp), %rax
	movq	%rax, %rdi
	call	_ZSt7forwardISt4pairIxxEEOT_RNSt16remove_referenceIS2_E4typeE
	movq	%rax, %rdx
	movq	-8(%rbp), %rax
	movq	%rdx, %rsi
	movq	%rax, %rdi
	call	_ZNSt5tupleIJOSt4pairIxxEEEC1IJS1_ELb1EEEDpOT_
	movq	-8(%rbp), %rax
	leave
	.cfi_def_cfa 7, 8
	ret
	.cfi_endproc
.LFE9188:
	.section	.gcc_except_table._ZSt16forward_as_tupleIJSt4pairIxxEEESt5tupleIJDpOT_EES5_,"aG",@progbits,_ZSt16forward_as_tupleIJSt4pairIxxEEESt5tupleIJDpOT_EES5_,comdat
.LLSDA9188:
	.byte	0xff
	.byte	0xff
	.byte	0x1
	.uleb128 .LLSDACSE9188-.LLSDACSB9188
.LLSDACSB9188:
.LLSDACSE9188:
	.section	.text._ZSt16forward_as_tupleIJSt4pairIxxEEESt5tupleIJDpOT_EES5_,"axG",@progbits,_ZSt16forward_as_tupleIJSt4pairIxxEEESt5tupleIJDpOT_EES5_,comdat
	.size	_ZSt16forward_as_tupleIJSt4pairIxxEEESt5tupleIJDpOT_EES5_, .-_ZSt16forward_as_tupleIJSt4pairIxxEEESt5tupleIJDpOT_EES5_
	.section	.text._ZNSt23_Rb_tree_const_iteratorISt4pairIKS0_IxxExEEC2ERKSt17_Rb_tree_iteratorIS3_E,"axG",@progbits,_ZNSt23_Rb_tree_const_iteratorISt4pairIKS0_IxxExEEC5ERKSt17_Rb_tree_iteratorIS3_E,comdat
	.align 2
	.weak	_ZNSt23_Rb_tree_const_iteratorISt4pairIKS0_IxxExEEC2ERKSt17_Rb_tree_iteratorIS3_E
	.type	_ZNSt23_Rb_tree_const_iteratorISt4pairIKS0_IxxExEEC2ERKSt17_Rb_tree_iteratorIS3_E, @function
_ZNSt23_Rb_tree_const_iteratorISt4pairIKS0_IxxExEEC2ERKSt17_Rb_tree_iteratorIS3_E:
.LFB9207:
	.cfi_startproc
	endbr64
	pushq	%rbp
	.cfi_def_cfa_offset 16
	.cfi_offset 6, -16
	movq	%rsp, %rbp
	.cfi_def_cfa_register 6
	movq	%rdi, -8(%rbp)
	movq	%rsi, -16(%rbp)
	movq	-16(%rbp), %rax
	movq	(%rax), %rdx
	movq	-8(%rbp), %rax
	movq	%rdx, (%rax)
	nop
	popq	%rbp
	.cfi_def_cfa 7, 8
	ret
	.cfi_endproc
.LFE9207:
	.size	_ZNSt23_Rb_tree_const_iteratorISt4pairIKS0_IxxExEEC2ERKSt17_Rb_tree_iteratorIS3_E, .-_ZNSt23_Rb_tree_const_iteratorISt4pairIKS0_IxxExEEC2ERKSt17_Rb_tree_iteratorIS3_E
	.weak	_ZNSt23_Rb_tree_const_iteratorISt4pairIKS0_IxxExEEC1ERKSt17_Rb_tree_iteratorIS3_E
	.set	_ZNSt23_Rb_tree_const_iteratorISt4pairIKS0_IxxExEEC1ERKSt17_Rb_tree_iteratorIS3_E,_ZNSt23_Rb_tree_const_iteratorISt4pairIKS0_IxxExEEC2ERKSt17_Rb_tree_iteratorIS3_E
	.section	.text._ZNSt8_Rb_treeISt4pairIxxES0_IKS1_xESt10_Select1stIS3_ESt4lessIS1_ESaIS3_EE22_M_emplace_hint_uniqueIJRKSt21piecewise_construct_tSt5tupleIJOS1_EESE_IJEEEEESt17_Rb_tree_iteratorIS3_ESt23_Rb_tree_const_iteratorIS3_EDpOT_,"axG",@progbits,_ZNSt8_Rb_treeISt4pairIxxES0_IKS1_xESt10_Select1stIS3_ESt4lessIS1_ESaIS3_EE22_M_emplace_hint_uniqueIJRKSt21piecewise_construct_tSt5tupleIJOS1_EESE_IJEEEEESt17_Rb_tree_iteratorIS3_ESt23_Rb_tree_const_iteratorIS3_EDpOT_,comdat
	.align 2
	.weak	_ZNSt8_Rb_treeISt4pairIxxES0_IKS1_xESt10_Select1stIS3_ESt4lessIS1_ESaIS3_EE22_M_emplace_hint_uniqueIJRKSt21piecewise_construct_tSt5tupleIJOS1_EESE_IJEEEEESt17_Rb_tree_iteratorIS3_ESt23_Rb_tree_const_iteratorIS3_EDpOT_
	.type	_ZNSt8_Rb_treeISt4pairIxxES0_IKS1_xESt10_Select1stIS3_ESt4lessIS1_ESaIS3_EE22_M_emplace_hint_uniqueIJRKSt21piecewise_construct_tSt5tupleIJOS1_EESE_IJEEEEESt17_Rb_tree_iteratorIS3_ESt23_Rb_tree_const_iteratorIS3_EDpOT_, @function
_ZNSt8_Rb_treeISt4pairIxxES0_IKS1_xESt10_Select1stIS3_ESt4lessIS1_ESaIS3_EE22_M_emplace_hint_uniqueIJRKSt21piecewise_construct_tSt5tupleIJOS1_EESE_IJEEEEESt17_Rb_tree_iteratorIS3_ESt23_Rb_tree_const_iteratorIS3_EDpOT_:
.LFB9209:
	.cfi_startproc
	.cfi_personality 0x9b,DW.ref.__gxx_personality_v0
	.cfi_lsda 0x1b,.LLSDA9209
	endbr64
	pushq	%rbp
	.cfi_def_cfa_offset 16
	.cfi_offset 6, -16
	movq	%rsp, %rbp
	.cfi_def_cfa_register 6
	pushq	%r12
	pushq	%rbx
	subq	$96, %rsp
	.cfi_offset 12, -24
	.cfi_offset 3, -32
	movq	%rdi, -72(%rbp)
	movq	%rsi, -80(%rbp)
	movq	%rdx, -88(%rbp)
	movq	%rcx, -96(%rbp)
	movq	%r8, -104(%rbp)
	movq	%fs:40, %rax
	movq	%rax, -24(%rbp)
	xorl	%eax, %eax
	movq	-104(%rbp), %rax
	movq	%rax, %rdi
	call	_ZSt7forwardISt5tupleIJEEEOT_RNSt16remove_referenceIS2_E4typeE
	movq	%rax, %r12
	movq	-96(%rbp), %rax
	movq	%rax, %rdi
	call	_ZSt7forwardISt5tupleIJOSt4pairIxxEEEEOT_RNSt16remove_referenceIS5_E4typeE
	movq	%rax, %rbx
	movq	-88(%rbp), %rax
	movq	%rax, %rdi
	call	_ZSt7forwardIRKSt21piecewise_construct_tEOT_RNSt16remove_referenceIS3_E4typeE
	movq	%rax, %rsi
	movq	-72(%rbp), %rax
	movq	%r12, %rcx
	movq	%rbx, %rdx
	movq	%rax, %rdi
.LEHB3:
	call	_ZNSt8_Rb_treeISt4pairIxxES0_IKS1_xESt10_Select1stIS3_ESt4lessIS1_ESaIS3_EE14_M_create_nodeIJRKSt21piecewise_construct_tSt5tupleIJOS1_EESE_IJEEEEEPSt13_Rb_tree_nodeIS3_EDpOT_
.LEHE3:
	movq	%rax, -56(%rbp)
	movq	-56(%rbp), %rax
	movq	%rax, %rdi
.LEHB4:
	call	_ZNSt8_Rb_treeISt4pairIxxES0_IKS1_xESt10_Select1stIS3_ESt4lessIS1_ESaIS3_EE6_S_keyEPKSt13_Rb_tree_nodeIS3_E
	movq	%rax, %rdx
	movq	-80(%rbp), %rcx
	movq	-72(%rbp), %rax
	movq	%rcx, %rsi
	movq	%rax, %rdi
	call	_ZNSt8_Rb_treeISt4pairIxxES0_IKS1_xESt10_Select1stIS3_ESt4lessIS1_ESaIS3_EE29_M_get_insert_hint_unique_posESt23_Rb_tree_const_iteratorIS3_ERS2_
	movq	%rax, -48(%rbp)
	movq	%rdx, -40(%rbp)
	movq	-40(%rbp), %rax
	testq	%rax, %rax
	je	.L76
	movq	-40(%rbp), %rdx
	movq	-48(%rbp), %rsi
	movq	-56(%rbp), %rcx
	movq	-72(%rbp), %rax
	movq	%rax, %rdi
	call	_ZNSt8_Rb_treeISt4pairIxxES0_IKS1_xESt10_Select1stIS3_ESt4lessIS1_ESaIS3_EE14_M_insert_nodeEPSt18_Rb_tree_node_baseSB_PSt13_Rb_tree_nodeIS3_E
.LEHE4:
	jmp	.L78
.L76:
	movq	-56(%rbp), %rdx
	movq	-72(%rbp), %rax
	movq	%rdx, %rsi
	movq	%rax, %rdi
	call	_ZNSt8_Rb_treeISt4pairIxxES0_IKS1_xESt10_Select1stIS3_ESt4lessIS1_ESaIS3_EE12_M_drop_nodeEPSt13_Rb_tree_nodeIS3_E
	movq	-48(%rbp), %rdx
	leaq	-64(%rbp), %rax
	movq	%rdx, %rsi
	movq	%rax, %rdi
	call	_ZNSt17_Rb_tree_iteratorISt4pairIKS0_IxxExEEC1EPSt18_Rb_tree_node_base
	movq	-64(%rbp), %rax
.L78:
	movq	-24(%rbp), %rbx
	xorq	%fs:40, %rbx
	je	.L81
	jmp	.L84
.L82:
	endbr64
	movq	%rax, %rdi
	call	__cxa_begin_catch@PLT
	movq	-56(%rbp), %rdx
	movq	-72(%rbp), %rax
	movq	%rdx, %rsi
	movq	%rax, %rdi
	call	_ZNSt8_Rb_treeISt4pairIxxES0_IKS1_xESt10_Select1stIS3_ESt4lessIS1_ESaIS3_EE12_M_drop_nodeEPSt13_Rb_tree_nodeIS3_E
.LEHB5:
	call	__cxa_rethrow@PLT
.LEHE5:
.L83:
	endbr64
	movq	%rax, %rbx
	call	__cxa_end_catch@PLT
	movq	%rbx, %rax
	movq	%rax, %rdi
.LEHB6:
	call	_Unwind_Resume@PLT
.LEHE6:
.L84:
	call	__stack_chk_fail@PLT
.L81:
	addq	$96, %rsp
	popq	%rbx
	popq	%r12
	popq	%rbp
	.cfi_def_cfa 7, 8
	ret
	.cfi_endproc
.LFE9209:
	.section	.gcc_except_table._ZNSt8_Rb_treeISt4pairIxxES0_IKS1_xESt10_Select1stIS3_ESt4lessIS1_ESaIS3_EE22_M_emplace_hint_uniqueIJRKSt21piecewise_construct_tSt5tupleIJOS1_EESE_IJEEEEESt17_Rb_tree_iteratorIS3_ESt23_Rb_tree_const_iteratorIS3_EDpOT_,"aG",@progbits,_ZNSt8_Rb_treeISt4pairIxxES0_IKS1_xESt10_Select1stIS3_ESt4lessIS1_ESaIS3_EE22_M_emplace_hint_uniqueIJRKSt21piecewise_construct_tSt5tupleIJOS1_EESE_IJEEEEESt17_Rb_tree_iteratorIS3_ESt23_Rb_tree_const_iteratorIS3_EDpOT_,comdat
	.align 4
.LLSDA9209:
	.byte	0xff
	.byte	0x9b
	.uleb128 .LLSDATT9209-.LLSDATTD9209
.LLSDATTD9209:
	.byte	0x1
	.uleb128 .LLSDACSE9209-.LLSDACSB9209
.LLSDACSB9209:
	.uleb128 .LEHB3-.LFB9209
	.uleb128 .LEHE3-.LEHB3
	.uleb128 0
	.uleb128 0
	.uleb128 .LEHB4-.LFB9209
	.uleb128 .LEHE4-.LEHB4
	.uleb128 .L82-.LFB9209
	.uleb128 0x1
	.uleb128 .LEHB5-.LFB9209
	.uleb128 .LEHE5-.LEHB5
	.uleb128 .L83-.LFB9209
	.uleb128 0
	.uleb128 .LEHB6-.LFB9209
	.uleb128 .LEHE6-.LEHB6
	.uleb128 0
	.uleb128 0
.LLSDACSE9209:
	.byte	0x1
	.byte	0
	.align 4
	.long	0

.LLSDATT9209:
	.section	.text._ZNSt8_Rb_treeISt4pairIxxES0_IKS1_xESt10_Select1stIS3_ESt4lessIS1_ESaIS3_EE22_M_emplace_hint_uniqueIJRKSt21piecewise_construct_tSt5tupleIJOS1_EESE_IJEEEEESt17_Rb_tree_iteratorIS3_ESt23_Rb_tree_const_iteratorIS3_EDpOT_,"axG",@progbits,_ZNSt8_Rb_treeISt4pairIxxES0_IKS1_xESt10_Select1stIS3_ESt4lessIS1_ESaIS3_EE22_M_emplace_hint_uniqueIJRKSt21piecewise_construct_tSt5tupleIJOS1_EESE_IJEEEEESt17_Rb_tree_iteratorIS3_ESt23_Rb_tree_const_iteratorIS3_EDpOT_,comdat
	.size	_ZNSt8_Rb_treeISt4pairIxxES0_IKS1_xESt10_Select1stIS3_ESt4lessIS1_ESaIS3_EE22_M_emplace_hint_uniqueIJRKSt21piecewise_construct_tSt5tupleIJOS1_EESE_IJEEEEESt17_Rb_tree_iteratorIS3_ESt23_Rb_tree_const_iteratorIS3_EDpOT_, .-_ZNSt8_Rb_treeISt4pairIxxES0_IKS1_xESt10_Select1stIS3_ESt4lessIS1_ESaIS3_EE22_M_emplace_hint_uniqueIJRKSt21piecewise_construct_tSt5tupleIJOS1_EESE_IJEEEEESt17_Rb_tree_iteratorIS3_ESt23_Rb_tree_const_iteratorIS3_EDpOT_
	.section	.text._ZN9__gnu_cxx13new_allocatorISt13_Rb_tree_nodeISt4pairIKS2_IxxExEEEC2Ev,"axG",@progbits,_ZN9__gnu_cxx13new_allocatorISt13_Rb_tree_nodeISt4pairIKS2_IxxExEEEC5Ev,comdat
	.align 2
	.weak	_ZN9__gnu_cxx13new_allocatorISt13_Rb_tree_nodeISt4pairIKS2_IxxExEEEC2Ev
	.type	_ZN9__gnu_cxx13new_allocatorISt13_Rb_tree_nodeISt4pairIKS2_IxxExEEEC2Ev, @function
_ZN9__gnu_cxx13new_allocatorISt13_Rb_tree_nodeISt4pairIKS2_IxxExEEEC2Ev:
.LFB9349:
	.cfi_startproc
	endbr64
	pushq	%rbp
	.cfi_def_cfa_offset 16
	.cfi_offset 6, -16
	movq	%rsp, %rbp
	.cfi_def_cfa_register 6
	movq	%rdi, -8(%rbp)
	nop
	popq	%rbp
	.cfi_def_cfa 7, 8
	ret
	.cfi_endproc
.LFE9349:
	.size	_ZN9__gnu_cxx13new_allocatorISt13_Rb_tree_nodeISt4pairIKS2_IxxExEEEC2Ev, .-_ZN9__gnu_cxx13new_allocatorISt13_Rb_tree_nodeISt4pairIKS2_IxxExEEEC2Ev
	.weak	_ZN9__gnu_cxx13new_allocatorISt13_Rb_tree_nodeISt4pairIKS2_IxxExEEEC1Ev
	.set	_ZN9__gnu_cxx13new_allocatorISt13_Rb_tree_nodeISt4pairIKS2_IxxExEEEC1Ev,_ZN9__gnu_cxx13new_allocatorISt13_Rb_tree_nodeISt4pairIKS2_IxxExEEEC2Ev
	.section	.text._ZNSt8_Rb_treeISt4pairIxxES0_IKS1_xESt10_Select1stIS3_ESt4lessIS1_ESaIS3_EE8_S_rightEPSt18_Rb_tree_node_base,"axG",@progbits,_ZNSt8_Rb_treeISt4pairIxxES0_IKS1_xESt10_Select1stIS3_ESt4lessIS1_ESaIS3_EE8_S_rightEPSt18_Rb_tree_node_base,comdat
	.weak	_ZNSt8_Rb_treeISt4pairIxxES0_IKS1_xESt10_Select1stIS3_ESt4lessIS1_ESaIS3_EE8_S_rightEPSt18_Rb_tree_node_base
	.type	_ZNSt8_Rb_treeISt4pairIxxES0_IKS1_xESt10_Select1stIS3_ESt4lessIS1_ESaIS3_EE8_S_rightEPSt18_Rb_tree_node_base, @function
_ZNSt8_Rb_treeISt4pairIxxES0_IKS1_xESt10_Select1stIS3_ESt4lessIS1_ESaIS3_EE8_S_rightEPSt18_Rb_tree_node_base:
.LFB9351:
	.cfi_startproc
	endbr64
	pushq	%rbp
	.cfi_def_cfa_offset 16
	.cfi_offset 6, -16
	movq	%rsp, %rbp
	.cfi_def_cfa_register 6
	movq	%rdi, -8(%rbp)
	movq	-8(%rbp), %rax
	movq	24(%rax), %rax
	popq	%rbp
	.cfi_def_cfa 7, 8
	ret
	.cfi_endproc
.LFE9351:
	.size	_ZNSt8_Rb_treeISt4pairIxxES0_IKS1_xESt10_Select1stIS3_ESt4lessIS1_ESaIS3_EE8_S_rightEPSt18_Rb_tree_node_base, .-_ZNSt8_Rb_treeISt4pairIxxES0_IKS1_xESt10_Select1stIS3_ESt4lessIS1_ESaIS3_EE8_S_rightEPSt18_Rb_tree_node_base
	.section	.text._ZNSt8_Rb_treeISt4pairIxxES0_IKS1_xESt10_Select1stIS3_ESt4lessIS1_ESaIS3_EE7_S_leftEPSt18_Rb_tree_node_base,"axG",@progbits,_ZNSt8_Rb_treeISt4pairIxxES0_IKS1_xESt10_Select1stIS3_ESt4lessIS1_ESaIS3_EE7_S_leftEPSt18_Rb_tree_node_base,comdat
	.weak	_ZNSt8_Rb_treeISt4pairIxxES0_IKS1_xESt10_Select1stIS3_ESt4lessIS1_ESaIS3_EE7_S_leftEPSt18_Rb_tree_node_base
	.type	_ZNSt8_Rb_treeISt4pairIxxES0_IKS1_xESt10_Select1stIS3_ESt4lessIS1_ESaIS3_EE7_S_leftEPSt18_Rb_tree_node_base, @function
_ZNSt8_Rb_treeISt4pairIxxES0_IKS1_xESt10_Select1stIS3_ESt4lessIS1_ESaIS3_EE7_S_leftEPSt18_Rb_tree_node_base:
.LFB9352:
	.cfi_startproc
	endbr64
	pushq	%rbp
	.cfi_def_cfa_offset 16
	.cfi_offset 6, -16
	movq	%rsp, %rbp
	.cfi_def_cfa_register 6
	movq	%rdi, -8(%rbp)
	movq	-8(%rbp), %rax
	movq	16(%rax), %rax
	popq	%rbp
	.cfi_def_cfa 7, 8
	ret
	.cfi_endproc
.LFE9352:
	.size	_ZNSt8_Rb_treeISt4pairIxxES0_IKS1_xESt10_Select1stIS3_ESt4lessIS1_ESaIS3_EE7_S_leftEPSt18_Rb_tree_node_base, .-_ZNSt8_Rb_treeISt4pairIxxES0_IKS1_xESt10_Select1stIS3_ESt4lessIS1_ESaIS3_EE7_S_leftEPSt18_Rb_tree_node_base
	.section	.text._ZNSt8_Rb_treeISt4pairIxxES0_IKS1_xESt10_Select1stIS3_ESt4lessIS1_ESaIS3_EE12_M_drop_nodeEPSt13_Rb_tree_nodeIS3_E,"axG",@progbits,_ZNSt8_Rb_treeISt4pairIxxES0_IKS1_xESt10_Select1stIS3_ESt4lessIS1_ESaIS3_EE12_M_drop_nodeEPSt13_Rb_tree_nodeIS3_E,comdat
	.align 2
	.weak	_ZNSt8_Rb_treeISt4pairIxxES0_IKS1_xESt10_Select1stIS3_ESt4lessIS1_ESaIS3_EE12_M_drop_nodeEPSt13_Rb_tree_nodeIS3_E
	.type	_ZNSt8_Rb_treeISt4pairIxxES0_IKS1_xESt10_Select1stIS3_ESt4lessIS1_ESaIS3_EE12_M_drop_nodeEPSt13_Rb_tree_nodeIS3_E, @function
_ZNSt8_Rb_treeISt4pairIxxES0_IKS1_xESt10_Select1stIS3_ESt4lessIS1_ESaIS3_EE12_M_drop_nodeEPSt13_Rb_tree_nodeIS3_E:
.LFB9353:
	.cfi_startproc
	endbr64
	pushq	%rbp
	.cfi_def_cfa_offset 16
	.cfi_offset 6, -16
	movq	%rsp, %rbp
	.cfi_def_cfa_register 6
	subq	$16, %rsp
	movq	%rdi, -8(%rbp)
	movq	%rsi, -16(%rbp)
	movq	-16(%rbp), %rdx
	movq	-8(%rbp), %rax
	movq	%rdx, %rsi
	movq	%rax, %rdi
	call	_ZNSt8_Rb_treeISt4pairIxxES0_IKS1_xESt10_Select1stIS3_ESt4lessIS1_ESaIS3_EE15_M_destroy_nodeEPSt13_Rb_tree_nodeIS3_E
	movq	-16(%rbp), %rdx
	movq	-8(%rbp), %rax
	movq	%rdx, %rsi
	movq	%rax, %rdi
	call	_ZNSt8_Rb_treeISt4pairIxxES0_IKS1_xESt10_Select1stIS3_ESt4lessIS1_ESaIS3_EE11_M_put_nodeEPSt13_Rb_tree_nodeIS3_E
	nop
	leave
	.cfi_def_cfa 7, 8
	ret
	.cfi_endproc
.LFE9353:
	.size	_ZNSt8_Rb_treeISt4pairIxxES0_IKS1_xESt10_Select1stIS3_ESt4lessIS1_ESaIS3_EE12_M_drop_nodeEPSt13_Rb_tree_nodeIS3_E, .-_ZNSt8_Rb_treeISt4pairIxxES0_IKS1_xESt10_Select1stIS3_ESt4lessIS1_ESaIS3_EE12_M_drop_nodeEPSt13_Rb_tree_nodeIS3_E
	.section	.text._ZSt4moveIRxEONSt16remove_referenceIT_E4typeEOS2_,"axG",@progbits,_ZSt4moveIRxEONSt16remove_referenceIT_E4typeEOS2_,comdat
	.weak	_ZSt4moveIRxEONSt16remove_referenceIT_E4typeEOS2_
	.type	_ZSt4moveIRxEONSt16remove_referenceIT_E4typeEOS2_, @function
_ZSt4moveIRxEONSt16remove_referenceIT_E4typeEOS2_:
.LFB9356:
	.cfi_startproc
	endbr64
	pushq	%rbp
	.cfi_def_cfa_offset 16
	.cfi_offset 6, -16
	movq	%rsp, %rbp
	.cfi_def_cfa_register 6
	movq	%rdi, -8(%rbp)
	movq	-8(%rbp), %rax
	popq	%rbp
	.cfi_def_cfa 7, 8
	ret
	.cfi_endproc
.LFE9356:
	.size	_ZSt4moveIRxEONSt16remove_referenceIT_E4typeEOS2_, .-_ZSt4moveIRxEONSt16remove_referenceIT_E4typeEOS2_
	.section	.text._ZSt4swapIxENSt9enable_ifIXsrSt6__and_IJSt6__not_ISt15__is_tuple_likeIT_EESt21is_move_constructibleIS4_ESt18is_move_assignableIS4_EEE5valueEvE4typeERS4_SE_,"axG",@progbits,_ZSt4swapIxENSt9enable_ifIXsrSt6__and_IJSt6__not_ISt15__is_tuple_likeIT_EESt21is_move_constructibleIS4_ESt18is_move_assignableIS4_EEE5valueEvE4typeERS4_SE_,comdat
	.weak	_ZSt4swapIxENSt9enable_ifIXsrSt6__and_IJSt6__not_ISt15__is_tuple_likeIT_EESt21is_move_constructibleIS4_ESt18is_move_assignableIS4_EEE5valueEvE4typeERS4_SE_
	.type	_ZSt4swapIxENSt9enable_ifIXsrSt6__and_IJSt6__not_ISt15__is_tuple_likeIT_EESt21is_move_constructibleIS4_ESt18is_move_assignableIS4_EEE5valueEvE4typeERS4_SE_, @function
_ZSt4swapIxENSt9enable_ifIXsrSt6__and_IJSt6__not_ISt15__is_tuple_likeIT_EESt21is_move_constructibleIS4_ESt18is_move_assignableIS4_EEE5valueEvE4typeERS4_SE_:
.LFB9355:
	.cfi_startproc
	endbr64
	pushq	%rbp
	.cfi_def_cfa_offset 16
	.cfi_offset 6, -16
	movq	%rsp, %rbp
	.cfi_def_cfa_register 6
	subq	$32, %rsp
	movq	%rdi, -24(%rbp)
	movq	%rsi, -32(%rbp)
	movq	%fs:40, %rax
	movq	%rax, -8(%rbp)
	xorl	%eax, %eax
	movq	-24(%rbp), %rax
	movq	%rax, %rdi
	call	_ZSt4moveIRxEONSt16remove_referenceIT_E4typeEOS2_
	movq	(%rax), %rax
	movq	%rax, -16(%rbp)
	movq	-32(%rbp), %rax
	movq	%rax, %rdi
	call	_ZSt4moveIRxEONSt16remove_referenceIT_E4typeEOS2_
	movq	(%rax), %rdx
	movq	-24(%rbp), %rax
	movq	%rdx, (%rax)
	leaq	-16(%rbp), %rax
	movq	%rax, %rdi
	call	_ZSt4moveIRxEONSt16remove_referenceIT_E4typeEOS2_
	movq	(%rax), %rdx
	movq	-32(%rbp), %rax
	movq	%rdx, (%rax)
	nop
	movq	-8(%rbp), %rax
	xorq	%fs:40, %rax
	je	.L94
	call	__stack_chk_fail@PLT
.L94:
	leave
	.cfi_def_cfa 7, 8
	ret
	.cfi_endproc
.LFE9355:
	.size	_ZSt4swapIxENSt9enable_ifIXsrSt6__and_IJSt6__not_ISt15__is_tuple_likeIT_EESt21is_move_constructibleIS4_ESt18is_move_assignableIS4_EEE5valueEvE4typeERS4_SE_, .-_ZSt4swapIxENSt9enable_ifIXsrSt6__and_IJSt6__not_ISt15__is_tuple_likeIT_EESt21is_move_constructibleIS4_ESt18is_move_assignableIS4_EEE5valueEvE4typeERS4_SE_
	.section	.text._ZNSt8_Rb_treeISt4pairIxxES0_IKS1_xESt10_Select1stIS3_ESt4lessIS1_ESaIS3_EE11lower_boundERS2_,"axG",@progbits,_ZNSt8_Rb_treeISt4pairIxxES0_IKS1_xESt10_Select1stIS3_ESt4lessIS1_ESaIS3_EE11lower_boundERS2_,comdat
	.align 2
	.weak	_ZNSt8_Rb_treeISt4pairIxxES0_IKS1_xESt10_Select1stIS3_ESt4lessIS1_ESaIS3_EE11lower_boundERS2_
	.type	_ZNSt8_Rb_treeISt4pairIxxES0_IKS1_xESt10_Select1stIS3_ESt4lessIS1_ESaIS3_EE11lower_boundERS2_, @function
_ZNSt8_Rb_treeISt4pairIxxES0_IKS1_xESt10_Select1stIS3_ESt4lessIS1_ESaIS3_EE11lower_boundERS2_:
.LFB9357:
	.cfi_startproc
	endbr64
	pushq	%rbp
	.cfi_def_cfa_offset 16
	.cfi_offset 6, -16
	movq	%rsp, %rbp
	.cfi_def_cfa_register 6
	pushq	%rbx
	subq	$24, %rsp
	.cfi_offset 3, -24
	movq	%rdi, -24(%rbp)
	movq	%rsi, -32(%rbp)
	movq	-24(%rbp), %rax
	movq	%rax, %rdi
	call	_ZNSt8_Rb_treeISt4pairIxxES0_IKS1_xESt10_Select1stIS3_ESt4lessIS1_ESaIS3_EE6_M_endEv
	movq	%rax, %rbx
	movq	-24(%rbp), %rax
	movq	%rax, %rdi
	call	_ZNSt8_Rb_treeISt4pairIxxES0_IKS1_xESt10_Select1stIS3_ESt4lessIS1_ESaIS3_EE8_M_beginEv
	movq	%rax, %rsi
	movq	-32(%rbp), %rdx
	movq	-24(%rbp), %rax
	movq	%rdx, %rcx
	movq	%rbx, %rdx
	movq	%rax, %rdi
	call	_ZNSt8_Rb_treeISt4pairIxxES0_IKS1_xESt10_Select1stIS3_ESt4lessIS1_ESaIS3_EE14_M_lower_boundEPSt13_Rb_tree_nodeIS3_EPSt18_Rb_tree_node_baseRS2_
	addq	$24, %rsp
	popq	%rbx
	popq	%rbp
	.cfi_def_cfa 7, 8
	ret
	.cfi_endproc
.LFE9357:
	.size	_ZNSt8_Rb_treeISt4pairIxxES0_IKS1_xESt10_Select1stIS3_ESt4lessIS1_ESaIS3_EE11lower_boundERS2_, .-_ZNSt8_Rb_treeISt4pairIxxES0_IKS1_xESt10_Select1stIS3_ESt4lessIS1_ESaIS3_EE11lower_boundERS2_
	.section	.text._ZNSt8_Rb_treeISt4pairIxxES0_IKS1_xESt10_Select1stIS3_ESt4lessIS1_ESaIS3_EE3endEv,"axG",@progbits,_ZNSt8_Rb_treeISt4pairIxxES0_IKS1_xESt10_Select1stIS3_ESt4lessIS1_ESaIS3_EE3endEv,comdat
	.align 2
	.weak	_ZNSt8_Rb_treeISt4pairIxxES0_IKS1_xESt10_Select1stIS3_ESt4lessIS1_ESaIS3_EE3endEv
	.type	_ZNSt8_Rb_treeISt4pairIxxES0_IKS1_xESt10_Select1stIS3_ESt4lessIS1_ESaIS3_EE3endEv, @function
_ZNSt8_Rb_treeISt4pairIxxES0_IKS1_xESt10_Select1stIS3_ESt4lessIS1_ESaIS3_EE3endEv:
.LFB9358:
	.cfi_startproc
	endbr64
	pushq	%rbp
	.cfi_def_cfa_offset 16
	.cfi_offset 6, -16
	movq	%rsp, %rbp
	.cfi_def_cfa_register 6
	subq	$32, %rsp
	movq	%rdi, -24(%rbp)
	movq	%fs:40, %rax
	movq	%rax, -8(%rbp)
	xorl	%eax, %eax
	movq	-24(%rbp), %rax
	leaq	8(%rax), %rdx
	leaq	-16(%rbp), %rax
	movq	%rdx, %rsi
	movq	%rax, %rdi
	call	_ZNSt17_Rb_tree_iteratorISt4pairIKS0_IxxExEEC1EPSt18_Rb_tree_node_base
	movq	-16(%rbp), %rax
	movq	-8(%rbp), %rcx
	xorq	%fs:40, %rcx
	je	.L99
	call	__stack_chk_fail@PLT
.L99:
	leave
	.cfi_def_cfa 7, 8
	ret
	.cfi_endproc
.LFE9358:
	.size	_ZNSt8_Rb_treeISt4pairIxxES0_IKS1_xESt10_Select1stIS3_ESt4lessIS1_ESaIS3_EE3endEv, .-_ZNSt8_Rb_treeISt4pairIxxES0_IKS1_xESt10_Select1stIS3_ESt4lessIS1_ESaIS3_EE3endEv
	.section	.text._ZNKSt8_Rb_treeISt4pairIxxES0_IKS1_xESt10_Select1stIS3_ESt4lessIS1_ESaIS3_EE8key_compEv,"axG",@progbits,_ZNKSt8_Rb_treeISt4pairIxxES0_IKS1_xESt10_Select1stIS3_ESt4lessIS1_ESaIS3_EE8key_compEv,comdat
	.align 2
	.weak	_ZNKSt8_Rb_treeISt4pairIxxES0_IKS1_xESt10_Select1stIS3_ESt4lessIS1_ESaIS3_EE8key_compEv
	.type	_ZNKSt8_Rb_treeISt4pairIxxES0_IKS1_xESt10_Select1stIS3_ESt4lessIS1_ESaIS3_EE8key_compEv, @function
_ZNKSt8_Rb_treeISt4pairIxxES0_IKS1_xESt10_Select1stIS3_ESt4lessIS1_ESaIS3_EE8key_compEv:
.LFB9359:
	.cfi_startproc
	endbr64
	pushq	%rbp
	.cfi_def_cfa_offset 16
	.cfi_offset 6, -16
	movq	%rsp, %rbp
	.cfi_def_cfa_register 6
	movq	%rdi, -8(%rbp)
	popq	%rbp
	.cfi_def_cfa 7, 8
	ret
	.cfi_endproc
.LFE9359:
	.size	_ZNKSt8_Rb_treeISt4pairIxxES0_IKS1_xESt10_Select1stIS3_ESt4lessIS1_ESaIS3_EE8key_compEv, .-_ZNKSt8_Rb_treeISt4pairIxxES0_IKS1_xESt10_Select1stIS3_ESt4lessIS1_ESaIS3_EE8key_compEv
	.section	.text._ZNSt13_Rb_tree_nodeISt4pairIKS0_IxxExEE9_M_valptrEv,"axG",@progbits,_ZNSt13_Rb_tree_nodeISt4pairIKS0_IxxExEE9_M_valptrEv,comdat
	.align 2
	.weak	_ZNSt13_Rb_tree_nodeISt4pairIKS0_IxxExEE9_M_valptrEv
	.type	_ZNSt13_Rb_tree_nodeISt4pairIKS0_IxxExEE9_M_valptrEv, @function
_ZNSt13_Rb_tree_nodeISt4pairIKS0_IxxExEE9_M_valptrEv:
.LFB9360:
	.cfi_startproc
	endbr64
	pushq	%rbp
	.cfi_def_cfa_offset 16
	.cfi_offset 6, -16
	movq	%rsp, %rbp
	.cfi_def_cfa_register 6
	subq	$16, %rsp
	movq	%rdi, -8(%rbp)
	movq	-8(%rbp), %rax
	addq	$32, %rax
	movq	%rax, %rdi
	call	_ZN9__gnu_cxx16__aligned_membufISt4pairIKS1_IxxExEE6_M_ptrEv
	leave
	.cfi_def_cfa 7, 8
	ret
	.cfi_endproc
.LFE9360:
	.size	_ZNSt13_Rb_tree_nodeISt4pairIKS0_IxxExEE9_M_valptrEv, .-_ZNSt13_Rb_tree_nodeISt4pairIKS0_IxxExEE9_M_valptrEv
	.section	.text._ZStltIxxEbRKSt4pairIT_T0_ES5_,"axG",@progbits,_ZStltIxxEbRKSt4pairIT_T0_ES5_,comdat
	.weak	_ZStltIxxEbRKSt4pairIT_T0_ES5_
	.type	_ZStltIxxEbRKSt4pairIT_T0_ES5_, @function
_ZStltIxxEbRKSt4pairIT_T0_ES5_:
.LFB9361:
	.cfi_startproc
	endbr64
	pushq	%rbp
	.cfi_def_cfa_offset 16
	.cfi_offset 6, -16
	movq	%rsp, %rbp
	.cfi_def_cfa_register 6
	movq	%rdi, -8(%rbp)
	movq	%rsi, -16(%rbp)
	movq	-8(%rbp), %rax
	movq	(%rax), %rdx
	movq	-16(%rbp), %rax
	movq	(%rax), %rax
	cmpq	%rax, %rdx
	jl	.L105
	movq	-16(%rbp), %rax
	movq	(%rax), %rdx
	movq	-8(%rbp), %rax
	movq	(%rax), %rax
	cmpq	%rax, %rdx
	jl	.L106
	movq	-8(%rbp), %rax
	movq	8(%rax), %rdx
	movq	-16(%rbp), %rax
	movq	8(%rax), %rax
	cmpq	%rax, %rdx
	jge	.L106
.L105:
	movl	$1, %eax
	jmp	.L107
.L106:
	movl	$0, %eax
.L107:
	popq	%rbp
	.cfi_def_cfa 7, 8
	ret
	.cfi_endproc
.LFE9361:
	.size	_ZStltIxxEbRKSt4pairIT_T0_ES5_, .-_ZStltIxxEbRKSt4pairIT_T0_ES5_
	.section	.text._ZSt7forwardISt4pairIxxEEOT_RNSt16remove_referenceIS2_E4typeE,"axG",@progbits,_ZSt7forwardISt4pairIxxEEOT_RNSt16remove_referenceIS2_E4typeE,comdat
	.weak	_ZSt7forwardISt4pairIxxEEOT_RNSt16remove_referenceIS2_E4typeE
	.type	_ZSt7forwardISt4pairIxxEEOT_RNSt16remove_referenceIS2_E4typeE, @function
_ZSt7forwardISt4pairIxxEEOT_RNSt16remove_referenceIS2_E4typeE:
.LFB9362:
	.cfi_startproc
	endbr64
	pushq	%rbp
	.cfi_def_cfa_offset 16
	.cfi_offset 6, -16
	movq	%rsp, %rbp
	.cfi_def_cfa_register 6
	movq	%rdi, -8(%rbp)
	movq	-8(%rbp), %rax
	popq	%rbp
	.cfi_def_cfa 7, 8
	ret
	.cfi_endproc
.LFE9362:
	.size	_ZSt7forwardISt4pairIxxEEOT_RNSt16remove_referenceIS2_E4typeE, .-_ZSt7forwardISt4pairIxxEEOT_RNSt16remove_referenceIS2_E4typeE
	.section	.text._ZNSt5tupleIJOSt4pairIxxEEEC2IJS1_ELb1EEEDpOT_,"axG",@progbits,_ZNSt5tupleIJOSt4pairIxxEEEC5IJS1_ELb1EEEDpOT_,comdat
	.align 2
	.weak	_ZNSt5tupleIJOSt4pairIxxEEEC2IJS1_ELb1EEEDpOT_
	.type	_ZNSt5tupleIJOSt4pairIxxEEEC2IJS1_ELb1EEEDpOT_, @function
_ZNSt5tupleIJOSt4pairIxxEEEC2IJS1_ELb1EEEDpOT_:
.LFB9364:
	.cfi_startproc
	endbr64
	pushq	%rbp
	.cfi_def_cfa_offset 16
	.cfi_offset 6, -16
	movq	%rsp, %rbp
	.cfi_def_cfa_register 6
	pushq	%rbx
	subq	$24, %rsp
	.cfi_offset 3, -24
	movq	%rdi, -24(%rbp)
	movq	%rsi, -32(%rbp)
	movq	-24(%rbp), %rbx
	movq	-32(%rbp), %rax
	movq	%rax, %rdi
	call	_ZSt7forwardISt4pairIxxEEOT_RNSt16remove_referenceIS2_E4typeE
	movq	%rax, %rsi
	movq	%rbx, %rdi
	call	_ZNSt11_Tuple_implILm0EJOSt4pairIxxEEEC2IS1_EEOT_
	nop
	addq	$24, %rsp
	popq	%rbx
	popq	%rbp
	.cfi_def_cfa 7, 8
	ret
	.cfi_endproc
.LFE9364:
	.size	_ZNSt5tupleIJOSt4pairIxxEEEC2IJS1_ELb1EEEDpOT_, .-_ZNSt5tupleIJOSt4pairIxxEEEC2IJS1_ELb1EEEDpOT_
	.weak	_ZNSt5tupleIJOSt4pairIxxEEEC1IJS1_ELb1EEEDpOT_
	.set	_ZNSt5tupleIJOSt4pairIxxEEEC1IJS1_ELb1EEEDpOT_,_ZNSt5tupleIJOSt4pairIxxEEEC2IJS1_ELb1EEEDpOT_
	.section	.text._ZNSt11_Tuple_implILm0EJOSt4pairIxxEEEC2EOS3_,"axG",@progbits,_ZNSt11_Tuple_implILm0EJOSt4pairIxxEEEC5EOS3_,comdat
	.align 2
	.weak	_ZNSt11_Tuple_implILm0EJOSt4pairIxxEEEC2EOS3_
	.type	_ZNSt11_Tuple_implILm0EJOSt4pairIxxEEEC2EOS3_, @function
_ZNSt11_Tuple_implILm0EJOSt4pairIxxEEEC2EOS3_:
.LFB9367:
	.cfi_startproc
	endbr64
	pushq	%rbp
	.cfi_def_cfa_offset 16
	.cfi_offset 6, -16
	movq	%rsp, %rbp
	.cfi_def_cfa_register 6
	pushq	%rbx
	subq	$24, %rsp
	.cfi_offset 3, -24
	movq	%rdi, -24(%rbp)
	movq	%rsi, -32(%rbp)
	movq	-24(%rbp), %rbx
	movq	-32(%rbp), %rax
	movq	%rax, %rdi
	call	_ZNSt11_Tuple_implILm0EJOSt4pairIxxEEE7_M_headERS3_
	movq	%rax, %rdi
	call	_ZSt7forwardIOSt4pairIxxEEOT_RNSt16remove_referenceIS3_E4typeE
	movq	%rax, %rsi
	movq	%rbx, %rdi
	call	_ZNSt10_Head_baseILm0EOSt4pairIxxELb0EEC2IS1_EEOT_
	nop
	addq	$24, %rsp
	popq	%rbx
	popq	%rbp
	.cfi_def_cfa 7, 8
	ret
	.cfi_endproc
.LFE9367:
	.size	_ZNSt11_Tuple_implILm0EJOSt4pairIxxEEEC2EOS3_, .-_ZNSt11_Tuple_implILm0EJOSt4pairIxxEEEC2EOS3_
	.weak	_ZNSt11_Tuple_implILm0EJOSt4pairIxxEEEC1EOS3_
	.set	_ZNSt11_Tuple_implILm0EJOSt4pairIxxEEEC1EOS3_,_ZNSt11_Tuple_implILm0EJOSt4pairIxxEEEC2EOS3_
	.section	.text._ZSt7forwardIRKSt21piecewise_construct_tEOT_RNSt16remove_referenceIS3_E4typeE,"axG",@progbits,_ZSt7forwardIRKSt21piecewise_construct_tEOT_RNSt16remove_referenceIS3_E4typeE,comdat
	.weak	_ZSt7forwardIRKSt21piecewise_construct_tEOT_RNSt16remove_referenceIS3_E4typeE
	.type	_ZSt7forwardIRKSt21piecewise_construct_tEOT_RNSt16remove_referenceIS3_E4typeE, @function
_ZSt7forwardIRKSt21piecewise_construct_tEOT_RNSt16remove_referenceIS3_E4typeE:
.LFB9369:
	.cfi_startproc
	endbr64
	pushq	%rbp
	.cfi_def_cfa_offset 16
	.cfi_offset 6, -16
	movq	%rsp, %rbp
	.cfi_def_cfa_register 6
	movq	%rdi, -8(%rbp)
	movq	-8(%rbp), %rax
	popq	%rbp
	.cfi_def_cfa 7, 8
	ret
	.cfi_endproc
.LFE9369:
	.size	_ZSt7forwardIRKSt21piecewise_construct_tEOT_RNSt16remove_referenceIS3_E4typeE, .-_ZSt7forwardIRKSt21piecewise_construct_tEOT_RNSt16remove_referenceIS3_E4typeE
	.section	.text._ZSt7forwardISt5tupleIJOSt4pairIxxEEEEOT_RNSt16remove_referenceIS5_E4typeE,"axG",@progbits,_ZSt7forwardISt5tupleIJOSt4pairIxxEEEEOT_RNSt16remove_referenceIS5_E4typeE,comdat
	.weak	_ZSt7forwardISt5tupleIJOSt4pairIxxEEEEOT_RNSt16remove_referenceIS5_E4typeE
	.type	_ZSt7forwardISt5tupleIJOSt4pairIxxEEEEOT_RNSt16remove_referenceIS5_E4typeE, @function
_ZSt7forwardISt5tupleIJOSt4pairIxxEEEEOT_RNSt16remove_referenceIS5_E4typeE:
.LFB9370:
	.cfi_startproc
	endbr64
	pushq	%rbp
	.cfi_def_cfa_offset 16
	.cfi_offset 6, -16
	movq	%rsp, %rbp
	.cfi_def_cfa_register 6
	movq	%rdi, -8(%rbp)
	movq	-8(%rbp), %rax
	popq	%rbp
	.cfi_def_cfa 7, 8
	ret
	.cfi_endproc
.LFE9370:
	.size	_ZSt7forwardISt5tupleIJOSt4pairIxxEEEEOT_RNSt16remove_referenceIS5_E4typeE, .-_ZSt7forwardISt5tupleIJOSt4pairIxxEEEEOT_RNSt16remove_referenceIS5_E4typeE
	.section	.text._ZSt7forwardISt5tupleIJEEEOT_RNSt16remove_referenceIS2_E4typeE,"axG",@progbits,_ZSt7forwardISt5tupleIJEEEOT_RNSt16remove_referenceIS2_E4typeE,comdat
	.weak	_ZSt7forwardISt5tupleIJEEEOT_RNSt16remove_referenceIS2_E4typeE
	.type	_ZSt7forwardISt5tupleIJEEEOT_RNSt16remove_referenceIS2_E4typeE, @function
_ZSt7forwardISt5tupleIJEEEOT_RNSt16remove_referenceIS2_E4typeE:
.LFB9371:
	.cfi_startproc
	endbr64
	pushq	%rbp
	.cfi_def_cfa_offset 16
	.cfi_offset 6, -16
	movq	%rsp, %rbp
	.cfi_def_cfa_register 6
	movq	%rdi, -8(%rbp)
	movq	-8(%rbp), %rax
	popq	%rbp
	.cfi_def_cfa 7, 8
	ret
	.cfi_endproc
.LFE9371:
	.size	_ZSt7forwardISt5tupleIJEEEOT_RNSt16remove_referenceIS2_E4typeE, .-_ZSt7forwardISt5tupleIJEEEOT_RNSt16remove_referenceIS2_E4typeE
	.section	.text._ZNSt8_Rb_treeISt4pairIxxES0_IKS1_xESt10_Select1stIS3_ESt4lessIS1_ESaIS3_EE14_M_create_nodeIJRKSt21piecewise_construct_tSt5tupleIJOS1_EESE_IJEEEEEPSt13_Rb_tree_nodeIS3_EDpOT_,"axG",@progbits,_ZNSt8_Rb_treeISt4pairIxxES0_IKS1_xESt10_Select1stIS3_ESt4lessIS1_ESaIS3_EE14_M_create_nodeIJRKSt21piecewise_construct_tSt5tupleIJOS1_EESE_IJEEEEEPSt13_Rb_tree_nodeIS3_EDpOT_,comdat
	.align 2
	.weak	_ZNSt8_Rb_treeISt4pairIxxES0_IKS1_xESt10_Select1stIS3_ESt4lessIS1_ESaIS3_EE14_M_create_nodeIJRKSt21piecewise_construct_tSt5tupleIJOS1_EESE_IJEEEEEPSt13_Rb_tree_nodeIS3_EDpOT_
	.type	_ZNSt8_Rb_treeISt4pairIxxES0_IKS1_xESt10_Select1stIS3_ESt4lessIS1_ESaIS3_EE14_M_create_nodeIJRKSt21piecewise_construct_tSt5tupleIJOS1_EESE_IJEEEEEPSt13_Rb_tree_nodeIS3_EDpOT_, @function
_ZNSt8_Rb_treeISt4pairIxxES0_IKS1_xESt10_Select1stIS3_ESt4lessIS1_ESaIS3_EE14_M_create_nodeIJRKSt21piecewise_construct_tSt5tupleIJOS1_EESE_IJEEEEEPSt13_Rb_tree_nodeIS3_EDpOT_:
.LFB9372:
	.cfi_startproc
	endbr64
	pushq	%rbp
	.cfi_def_cfa_offset 16
	.cfi_offset 6, -16
	movq	%rsp, %rbp
	.cfi_def_cfa_register 6
	pushq	%r12
	pushq	%rbx
	subq	$48, %rsp
	.cfi_offset 12, -24
	.cfi_offset 3, -32
	movq	%rdi, -40(%rbp)
	movq	%rsi, -48(%rbp)
	movq	%rdx, -56(%rbp)
	movq	%rcx, -64(%rbp)
	movq	-40(%rbp), %rax
	movq	%rax, %rdi
	call	_ZNSt8_Rb_treeISt4pairIxxES0_IKS1_xESt10_Select1stIS3_ESt4lessIS1_ESaIS3_EE11_M_get_nodeEv
	movq	%rax, -24(%rbp)
	movq	-64(%rbp), %rax
	movq	%rax, %rdi
	call	_ZSt7forwardISt5tupleIJEEEOT_RNSt16remove_referenceIS2_E4typeE
	movq	%rax, %r12
	movq	-56(%rbp), %rax
	movq	%rax, %rdi
	call	_ZSt7forwardISt5tupleIJOSt4pairIxxEEEEOT_RNSt16remove_referenceIS5_E4typeE
	movq	%rax, %rbx
	movq	-48(%rbp), %rax
	movq	%rax, %rdi
	call	_ZSt7forwardIRKSt21piecewise_construct_tEOT_RNSt16remove_referenceIS3_E4typeE
	movq	%rax, %rdx
	movq	-24(%rbp), %rsi
	movq	-40(%rbp), %rax
	movq	%r12, %r8
	movq	%rbx, %rcx
	movq	%rax, %rdi
	call	_ZNSt8_Rb_treeISt4pairIxxES0_IKS1_xESt10_Select1stIS3_ESt4lessIS1_ESaIS3_EE17_M_construct_nodeIJRKSt21piecewise_construct_tSt5tupleIJOS1_EESE_IJEEEEEvPSt13_Rb_tree_nodeIS3_EDpOT_
	movq	-24(%rbp), %rax
	addq	$48, %rsp
	popq	%rbx
	popq	%r12
	popq	%rbp
	.cfi_def_cfa 7, 8
	ret
	.cfi_endproc
.LFE9372:
	.size	_ZNSt8_Rb_treeISt4pairIxxES0_IKS1_xESt10_Select1stIS3_ESt4lessIS1_ESaIS3_EE14_M_create_nodeIJRKSt21piecewise_construct_tSt5tupleIJOS1_EESE_IJEEEEEPSt13_Rb_tree_nodeIS3_EDpOT_, .-_ZNSt8_Rb_treeISt4pairIxxES0_IKS1_xESt10_Select1stIS3_ESt4lessIS1_ESaIS3_EE14_M_create_nodeIJRKSt21piecewise_construct_tSt5tupleIJOS1_EESE_IJEEEEEPSt13_Rb_tree_nodeIS3_EDpOT_
	.section	.text._ZNSt8_Rb_treeISt4pairIxxES0_IKS1_xESt10_Select1stIS3_ESt4lessIS1_ESaIS3_EE29_M_get_insert_hint_unique_posESt23_Rb_tree_const_iteratorIS3_ERS2_,"axG",@progbits,_ZNSt8_Rb_treeISt4pairIxxES0_IKS1_xESt10_Select1stIS3_ESt4lessIS1_ESaIS3_EE29_M_get_insert_hint_unique_posESt23_Rb_tree_const_iteratorIS3_ERS2_,comdat
	.align 2
	.weak	_ZNSt8_Rb_treeISt4pairIxxES0_IKS1_xESt10_Select1stIS3_ESt4lessIS1_ESaIS3_EE29_M_get_insert_hint_unique_posESt23_Rb_tree_const_iteratorIS3_ERS2_
	.type	_ZNSt8_Rb_treeISt4pairIxxES0_IKS1_xESt10_Select1stIS3_ESt4lessIS1_ESaIS3_EE29_M_get_insert_hint_unique_posESt23_Rb_tree_const_iteratorIS3_ERS2_, @function
_ZNSt8_Rb_treeISt4pairIxxES0_IKS1_xESt10_Select1stIS3_ESt4lessIS1_ESaIS3_EE29_M_get_insert_hint_unique_posESt23_Rb_tree_const_iteratorIS3_ERS2_:
.LFB9373:
	.cfi_startproc
	endbr64
	pushq	%rbp
	.cfi_def_cfa_offset 16
	.cfi_offset 6, -16
	movq	%rsp, %rbp
	.cfi_def_cfa_register 6
	pushq	%rbx
	subq	$104, %rsp
	.cfi_offset 3, -24
	movq	%rdi, -88(%rbp)
	movq	%rsi, -96(%rbp)
	movq	%rdx, -104(%rbp)
	movq	%fs:40, %rax
	movq	%rax, -24(%rbp)
	xorl	%eax, %eax
	leaq	-96(%rbp), %rax
	movq	%rax, %rdi
	call	_ZNKSt23_Rb_tree_const_iteratorISt4pairIKS0_IxxExEE13_M_const_castEv
	movq	%rax, -72(%rbp)
	movq	-72(%rbp), %rbx
	movq	-88(%rbp), %rax
	movq	%rax, %rdi
	call	_ZNSt8_Rb_treeISt4pairIxxES0_IKS1_xESt10_Select1stIS3_ESt4lessIS1_ESaIS3_EE6_M_endEv
	cmpq	%rax, %rbx
	sete	%al
	testb	%al, %al
	je	.L122
	movq	-88(%rbp), %rax
	movq	%rax, %rdi
	call	_ZNKSt8_Rb_treeISt4pairIxxES0_IKS1_xESt10_Select1stIS3_ESt4lessIS1_ESaIS3_EE4sizeEv
	testq	%rax, %rax
	je	.L123
	movq	-88(%rbp), %rbx
	movq	-88(%rbp), %rax
	movq	%rax, %rdi
	call	_ZNSt8_Rb_treeISt4pairIxxES0_IKS1_xESt10_Select1stIS3_ESt4lessIS1_ESaIS3_EE12_M_rightmostEv
	movq	(%rax), %rax
	movq	%rax, %rdi
	call	_ZNSt8_Rb_treeISt4pairIxxES0_IKS1_xESt10_Select1stIS3_ESt4lessIS1_ESaIS3_EE6_S_keyEPKSt18_Rb_tree_node_base
	movq	%rax, %rcx
	movq	-104(%rbp), %rax
	movq	%rax, %rdx
	movq	%rcx, %rsi
	movq	%rbx, %rdi
	call	_ZNKSt4lessISt4pairIxxEEclERKS1_S4_
	testb	%al, %al
	je	.L123
	movl	$1, %eax
	jmp	.L124
.L123:
	movl	$0, %eax
.L124:
	testb	%al, %al
	je	.L125
	movq	-88(%rbp), %rax
	movq	%rax, %rdi
	call	_ZNSt8_Rb_treeISt4pairIxxES0_IKS1_xESt10_Select1stIS3_ESt4lessIS1_ESaIS3_EE12_M_rightmostEv
	movq	%rax, %rdx
	movq	$0, -56(%rbp)
	leaq	-56(%rbp), %rcx
	leaq	-48(%rbp), %rax
	movq	%rcx, %rsi
	movq	%rax, %rdi
	call	_ZNSt4pairIPSt18_Rb_tree_node_baseS1_EC1IRS1_Lb1EEERKS1_OT_
	movq	-48(%rbp), %rax
	movq	-40(%rbp), %rdx
	jmp	.L137
.L125:
	movq	-104(%rbp), %rdx
	movq	-88(%rbp), %rax
	movq	%rdx, %rsi
	movq	%rax, %rdi
	call	_ZNSt8_Rb_treeISt4pairIxxES0_IKS1_xESt10_Select1stIS3_ESt4lessIS1_ESaIS3_EE24_M_get_insert_unique_posERS2_
	jmp	.L137
.L122:
	movq	-88(%rbp), %rbx
	movq	-72(%rbp), %rax
	movq	%rax, %rdi
	call	_ZNSt8_Rb_treeISt4pairIxxES0_IKS1_xESt10_Select1stIS3_ESt4lessIS1_ESaIS3_EE6_S_keyEPKSt18_Rb_tree_node_base
	movq	%rax, %rdx
	movq	-104(%rbp), %rax
	movq	%rax, %rsi
	movq	%rbx, %rdi
	call	_ZNKSt4lessISt4pairIxxEEclERKS1_S4_
	testb	%al, %al
	je	.L127
	movq	-72(%rbp), %rax
	movq	%rax, -64(%rbp)
	movq	-72(%rbp), %rbx
	movq	-88(%rbp), %rax
	movq	%rax, %rdi
	call	_ZNSt8_Rb_treeISt4pairIxxES0_IKS1_xESt10_Select1stIS3_ESt4lessIS1_ESaIS3_EE11_M_leftmostEv
	movq	(%rax), %rax
	cmpq	%rax, %rbx
	sete	%al
	testb	%al, %al
	je	.L128
	movq	-88(%rbp), %rax
	movq	%rax, %rdi
	call	_ZNSt8_Rb_treeISt4pairIxxES0_IKS1_xESt10_Select1stIS3_ESt4lessIS1_ESaIS3_EE11_M_leftmostEv
	movq	%rax, %rbx
	movq	-88(%rbp), %rax
	movq	%rax, %rdi
	call	_ZNSt8_Rb_treeISt4pairIxxES0_IKS1_xESt10_Select1stIS3_ESt4lessIS1_ESaIS3_EE11_M_leftmostEv
	movq	%rax, %rcx
	leaq	-48(%rbp), %rax
	movq	%rbx, %rdx
	movq	%rcx, %rsi
	movq	%rax, %rdi
	call	_ZNSt4pairIPSt18_Rb_tree_node_baseS1_EC1IRS1_S4_Lb1EEEOT_OT0_
	movq	-48(%rbp), %rax
	movq	-40(%rbp), %rdx
	jmp	.L137
.L128:
	movq	-88(%rbp), %rbx
	leaq	-64(%rbp), %rax
	movq	%rax, %rdi
	call	_ZNSt17_Rb_tree_iteratorISt4pairIKS0_IxxExEEmmEv
	movq	(%rax), %rax
	movq	%rax, %rdi
	call	_ZNSt8_Rb_treeISt4pairIxxES0_IKS1_xESt10_Select1stIS3_ESt4lessIS1_ESaIS3_EE6_S_keyEPKSt18_Rb_tree_node_base
	movq	%rax, %rcx
	movq	-104(%rbp), %rax
	movq	%rax, %rdx
	movq	%rcx, %rsi
	movq	%rbx, %rdi
	call	_ZNKSt4lessISt4pairIxxEEclERKS1_S4_
	testb	%al, %al
	je	.L130
	movq	-64(%rbp), %rax
	movq	%rax, %rdi
	call	_ZNSt8_Rb_treeISt4pairIxxES0_IKS1_xESt10_Select1stIS3_ESt4lessIS1_ESaIS3_EE8_S_rightEPSt18_Rb_tree_node_base
	testq	%rax, %rax
	sete	%al
	testb	%al, %al
	je	.L131
	movq	$0, -56(%rbp)
	leaq	-64(%rbp), %rdx
	leaq	-56(%rbp), %rcx
	leaq	-48(%rbp), %rax
	movq	%rcx, %rsi
	movq	%rax, %rdi
	call	_ZNSt4pairIPSt18_Rb_tree_node_baseS1_EC1IRS1_Lb1EEERKS1_OT_
	movq	-48(%rbp), %rax
	movq	-40(%rbp), %rdx
	jmp	.L137
.L131:
	leaq	-72(%rbp), %rdx
	leaq	-72(%rbp), %rcx
	leaq	-48(%rbp), %rax
	movq	%rcx, %rsi
	movq	%rax, %rdi
	call	_ZNSt4pairIPSt18_Rb_tree_node_baseS1_EC1IRS1_S4_Lb1EEEOT_OT0_
	movq	-48(%rbp), %rax
	movq	-40(%rbp), %rdx
	jmp	.L137
.L130:
	movq	-104(%rbp), %rdx
	movq	-88(%rbp), %rax
	movq	%rdx, %rsi
	movq	%rax, %rdi
	call	_ZNSt8_Rb_treeISt4pairIxxES0_IKS1_xESt10_Select1stIS3_ESt4lessIS1_ESaIS3_EE24_M_get_insert_unique_posERS2_
	jmp	.L137
.L127:
	movq	-88(%rbp), %rbx
	movq	-72(%rbp), %rax
	movq	%rax, %rdi
	call	_ZNSt8_Rb_treeISt4pairIxxES0_IKS1_xESt10_Select1stIS3_ESt4lessIS1_ESaIS3_EE6_S_keyEPKSt18_Rb_tree_node_base
	movq	%rax, %rcx
	movq	-104(%rbp), %rax
	movq	%rax, %rdx
	movq	%rcx, %rsi
	movq	%rbx, %rdi
	call	_ZNKSt4lessISt4pairIxxEEclERKS1_S4_
	testb	%al, %al
	je	.L132
	movq	-72(%rbp), %rax
	movq	%rax, -64(%rbp)
	movq	-72(%rbp), %rbx
	movq	-88(%rbp), %rax
	movq	%rax, %rdi
	call	_ZNSt8_Rb_treeISt4pairIxxES0_IKS1_xESt10_Select1stIS3_ESt4lessIS1_ESaIS3_EE12_M_rightmostEv
	movq	(%rax), %rax
	cmpq	%rax, %rbx
	sete	%al
	testb	%al, %al
	je	.L133
	movq	-88(%rbp), %rax
	movq	%rax, %rdi
	call	_ZNSt8_Rb_treeISt4pairIxxES0_IKS1_xESt10_Select1stIS3_ESt4lessIS1_ESaIS3_EE12_M_rightmostEv
	movq	%rax, %rdx
	movq	$0, -56(%rbp)
	leaq	-56(%rbp), %rcx
	leaq	-48(%rbp), %rax
	movq	%rcx, %rsi
	movq	%rax, %rdi
	call	_ZNSt4pairIPSt18_Rb_tree_node_baseS1_EC1IRS1_Lb1EEERKS1_OT_
	movq	-48(%rbp), %rax
	movq	-40(%rbp), %rdx
	jmp	.L137
.L133:
	movq	-88(%rbp), %rbx
	leaq	-64(%rbp), %rax
	movq	%rax, %rdi
	call	_ZNSt17_Rb_tree_iteratorISt4pairIKS0_IxxExEEppEv
	movq	(%rax), %rax
	movq	%rax, %rdi
	call	_ZNSt8_Rb_treeISt4pairIxxES0_IKS1_xESt10_Select1stIS3_ESt4lessIS1_ESaIS3_EE6_S_keyEPKSt18_Rb_tree_node_base
	movq	%rax, %rdx
	movq	-104(%rbp), %rax
	movq	%rax, %rsi
	movq	%rbx, %rdi
	call	_ZNKSt4lessISt4pairIxxEEclERKS1_S4_
	testb	%al, %al
	je	.L135
	movq	-72(%rbp), %rax
	movq	%rax, %rdi
	call	_ZNSt8_Rb_treeISt4pairIxxES0_IKS1_xESt10_Select1stIS3_ESt4lessIS1_ESaIS3_EE8_S_rightEPSt18_Rb_tree_node_base
	testq	%rax, %rax
	sete	%al
	testb	%al, %al
	je	.L136
	movq	$0, -56(%rbp)
	leaq	-72(%rbp), %rdx
	leaq	-56(%rbp), %rcx
	leaq	-48(%rbp), %rax
	movq	%rcx, %rsi
	movq	%rax, %rdi
	call	_ZNSt4pairIPSt18_Rb_tree_node_baseS1_EC1IRS1_Lb1EEERKS1_OT_
	movq	-48(%rbp), %rax
	movq	-40(%rbp), %rdx
	jmp	.L137
.L136:
	leaq	-64(%rbp), %rdx
	leaq	-64(%rbp), %rcx
	leaq	-48(%rbp), %rax
	movq	%rcx, %rsi
	movq	%rax, %rdi
	call	_ZNSt4pairIPSt18_Rb_tree_node_baseS1_EC1IRS1_S4_Lb1EEEOT_OT0_
	movq	-48(%rbp), %rax
	movq	-40(%rbp), %rdx
	jmp	.L137
.L135:
	movq	-104(%rbp), %rdx
	movq	-88(%rbp), %rax
	movq	%rdx, %rsi
	movq	%rax, %rdi
	call	_ZNSt8_Rb_treeISt4pairIxxES0_IKS1_xESt10_Select1stIS3_ESt4lessIS1_ESaIS3_EE24_M_get_insert_unique_posERS2_
	jmp	.L137
.L132:
	movq	$0, -56(%rbp)
	leaq	-56(%rbp), %rdx
	leaq	-72(%rbp), %rcx
	leaq	-48(%rbp), %rax
	movq	%rcx, %rsi
	movq	%rax, %rdi
	call	_ZNSt4pairIPSt18_Rb_tree_node_baseS1_EC1IRS1_Lb1EEEOT_RKS1_
	movq	-48(%rbp), %rax
	movq	-40(%rbp), %rdx
.L137:
	movq	-24(%rbp), %rsi
	xorq	%fs:40, %rsi
	je	.L138
	call	__stack_chk_fail@PLT
.L138:
	addq	$104, %rsp
	popq	%rbx
	popq	%rbp
	.cfi_def_cfa 7, 8
	ret
	.cfi_endproc
.LFE9373:
	.size	_ZNSt8_Rb_treeISt4pairIxxES0_IKS1_xESt10_Select1stIS3_ESt4lessIS1_ESaIS3_EE29_M_get_insert_hint_unique_posESt23_Rb_tree_const_iteratorIS3_ERS2_, .-_ZNSt8_Rb_treeISt4pairIxxES0_IKS1_xESt10_Select1stIS3_ESt4lessIS1_ESaIS3_EE29_M_get_insert_hint_unique_posESt23_Rb_tree_const_iteratorIS3_ERS2_
	.section	.text._ZNSt8_Rb_treeISt4pairIxxES0_IKS1_xESt10_Select1stIS3_ESt4lessIS1_ESaIS3_EE6_S_keyEPKSt13_Rb_tree_nodeIS3_E,"axG",@progbits,_ZNSt8_Rb_treeISt4pairIxxES0_IKS1_xESt10_Select1stIS3_ESt4lessIS1_ESaIS3_EE6_S_keyEPKSt13_Rb_tree_nodeIS3_E,comdat
	.weak	_ZNSt8_Rb_treeISt4pairIxxES0_IKS1_xESt10_Select1stIS3_ESt4lessIS1_ESaIS3_EE6_S_keyEPKSt13_Rb_tree_nodeIS3_E
	.type	_ZNSt8_Rb_treeISt4pairIxxES0_IKS1_xESt10_Select1stIS3_ESt4lessIS1_ESaIS3_EE6_S_keyEPKSt13_Rb_tree_nodeIS3_E, @function
_ZNSt8_Rb_treeISt4pairIxxES0_IKS1_xESt10_Select1stIS3_ESt4lessIS1_ESaIS3_EE6_S_keyEPKSt13_Rb_tree_nodeIS3_E:
.LFB9390:
	.cfi_startproc
	endbr64
	pushq	%rbp
	.cfi_def_cfa_offset 16
	.cfi_offset 6, -16
	movq	%rsp, %rbp
	.cfi_def_cfa_register 6
	subq	$32, %rsp
	movq	%rdi, -24(%rbp)
	movq	%fs:40, %rax
	movq	%rax, -8(%rbp)
	xorl	%eax, %eax
	movq	-24(%rbp), %rax
	movq	%rax, %rdi
	call	_ZNKSt13_Rb_tree_nodeISt4pairIKS0_IxxExEE9_M_valptrEv
	movq	%rax, %rdx
	leaq	-9(%rbp), %rax
	movq	%rdx, %rsi
	movq	%rax, %rdi
	call	_ZNKSt10_Select1stISt4pairIKS0_IxxExEEclERKS3_
	movq	-8(%rbp), %rcx
	xorq	%fs:40, %rcx
	je	.L141
	call	__stack_chk_fail@PLT
.L141:
	leave
	.cfi_def_cfa 7, 8
	ret
	.cfi_endproc
.LFE9390:
	.size	_ZNSt8_Rb_treeISt4pairIxxES0_IKS1_xESt10_Select1stIS3_ESt4lessIS1_ESaIS3_EE6_S_keyEPKSt13_Rb_tree_nodeIS3_E, .-_ZNSt8_Rb_treeISt4pairIxxES0_IKS1_xESt10_Select1stIS3_ESt4lessIS1_ESaIS3_EE6_S_keyEPKSt13_Rb_tree_nodeIS3_E
	.section	.text._ZNSt8_Rb_treeISt4pairIxxES0_IKS1_xESt10_Select1stIS3_ESt4lessIS1_ESaIS3_EE14_M_insert_nodeEPSt18_Rb_tree_node_baseSB_PSt13_Rb_tree_nodeIS3_E,"axG",@progbits,_ZNSt8_Rb_treeISt4pairIxxES0_IKS1_xESt10_Select1stIS3_ESt4lessIS1_ESaIS3_EE14_M_insert_nodeEPSt18_Rb_tree_node_baseSB_PSt13_Rb_tree_nodeIS3_E,comdat
	.align 2
	.weak	_ZNSt8_Rb_treeISt4pairIxxES0_IKS1_xESt10_Select1stIS3_ESt4lessIS1_ESaIS3_EE14_M_insert_nodeEPSt18_Rb_tree_node_baseSB_PSt13_Rb_tree_nodeIS3_E
	.type	_ZNSt8_Rb_treeISt4pairIxxES0_IKS1_xESt10_Select1stIS3_ESt4lessIS1_ESaIS3_EE14_M_insert_nodeEPSt18_Rb_tree_node_baseSB_PSt13_Rb_tree_nodeIS3_E, @function
_ZNSt8_Rb_treeISt4pairIxxES0_IKS1_xESt10_Select1stIS3_ESt4lessIS1_ESaIS3_EE14_M_insert_nodeEPSt18_Rb_tree_node_baseSB_PSt13_Rb_tree_nodeIS3_E:
.LFB9392:
	.cfi_startproc
	endbr64
	pushq	%rbp
	.cfi_def_cfa_offset 16
	.cfi_offset 6, -16
	movq	%rsp, %rbp
	.cfi_def_cfa_register 6
	pushq	%r12
	pushq	%rbx
	subq	$64, %rsp
	.cfi_offset 12, -24
	.cfi_offset 3, -32
	movq	%rdi, -56(%rbp)
	movq	%rsi, -64(%rbp)
	movq	%rdx, -72(%rbp)
	movq	%rcx, -80(%rbp)
	movq	%fs:40, %rax
	movq	%rax, -24(%rbp)
	xorl	%eax, %eax
	cmpq	$0, -64(%rbp)
	jne	.L143
	movq	-56(%rbp), %rax
	movq	%rax, %rdi
	call	_ZNSt8_Rb_treeISt4pairIxxES0_IKS1_xESt10_Select1stIS3_ESt4lessIS1_ESaIS3_EE6_M_endEv
	cmpq	%rax, -72(%rbp)
	je	.L143
	movq	-56(%rbp), %rbx
	movq	-72(%rbp), %rax
	movq	%rax, %rdi
	call	_ZNSt8_Rb_treeISt4pairIxxES0_IKS1_xESt10_Select1stIS3_ESt4lessIS1_ESaIS3_EE6_S_keyEPKSt18_Rb_tree_node_base
	movq	%rax, %r12
	movq	-80(%rbp), %rax
	movq	%rax, %rdi
	call	_ZNSt8_Rb_treeISt4pairIxxES0_IKS1_xESt10_Select1stIS3_ESt4lessIS1_ESaIS3_EE6_S_keyEPKSt13_Rb_tree_nodeIS3_E
	movq	%r12, %rdx
	movq	%rax, %rsi
	movq	%rbx, %rdi
	call	_ZNKSt4lessISt4pairIxxEEclERKS1_S4_
	testb	%al, %al
	je	.L144
.L143:
	movl	$1, %eax
	jmp	.L145
.L144:
	movl	$0, %eax
.L145:
	movb	%al, -33(%rbp)
	movq	-56(%rbp), %rax
	leaq	8(%rax), %rcx
	movzbl	-33(%rbp), %eax
	movq	-72(%rbp), %rdx
	movq	-80(%rbp), %rsi
	movl	%eax, %edi
	call	_ZSt29_Rb_tree_insert_and_rebalancebPSt18_Rb_tree_node_baseS0_RS_@PLT
	movq	-56(%rbp), %rax
	movq	40(%rax), %rax
	leaq	1(%rax), %rdx
	movq	-56(%rbp), %rax
	movq	%rdx, 40(%rax)
	movq	-80(%rbp), %rdx
	leaq	-32(%rbp), %rax
	movq	%rdx, %rsi
	movq	%rax, %rdi
	call	_ZNSt17_Rb_tree_iteratorISt4pairIKS0_IxxExEEC1EPSt18_Rb_tree_node_base
	movq	-32(%rbp), %rax
	movq	-24(%rbp), %rbx
	xorq	%fs:40, %rbx
	je	.L147
	call	__stack_chk_fail@PLT
.L147:
	addq	$64, %rsp
	popq	%rbx
	popq	%r12
	popq	%rbp
	.cfi_def_cfa 7, 8
	ret
	.cfi_endproc
.LFE9392:
	.size	_ZNSt8_Rb_treeISt4pairIxxES0_IKS1_xESt10_Select1stIS3_ESt4lessIS1_ESaIS3_EE14_M_insert_nodeEPSt18_Rb_tree_node_baseSB_PSt13_Rb_tree_nodeIS3_E, .-_ZNSt8_Rb_treeISt4pairIxxES0_IKS1_xESt10_Select1stIS3_ESt4lessIS1_ESaIS3_EE14_M_insert_nodeEPSt18_Rb_tree_node_baseSB_PSt13_Rb_tree_nodeIS3_E
	.section	.text._ZNSt17_Rb_tree_iteratorISt4pairIKS0_IxxExEEC2EPSt18_Rb_tree_node_base,"axG",@progbits,_ZNSt17_Rb_tree_iteratorISt4pairIKS0_IxxExEEC5EPSt18_Rb_tree_node_base,comdat
	.align 2
	.weak	_ZNSt17_Rb_tree_iteratorISt4pairIKS0_IxxExEEC2EPSt18_Rb_tree_node_base
	.type	_ZNSt17_Rb_tree_iteratorISt4pairIKS0_IxxExEEC2EPSt18_Rb_tree_node_base, @function
_ZNSt17_Rb_tree_iteratorISt4pairIKS0_IxxExEEC2EPSt18_Rb_tree_node_base:
.LFB9394:
	.cfi_startproc
	endbr64
	pushq	%rbp
	.cfi_def_cfa_offset 16
	.cfi_offset 6, -16
	movq	%rsp, %rbp
	.cfi_def_cfa_register 6
	movq	%rdi, -8(%rbp)
	movq	%rsi, -16(%rbp)
	movq	-8(%rbp), %rax
	movq	-16(%rbp), %rdx
	movq	%rdx, (%rax)
	nop
	popq	%rbp
	.cfi_def_cfa 7, 8
	ret
	.cfi_endproc
.LFE9394:
	.size	_ZNSt17_Rb_tree_iteratorISt4pairIKS0_IxxExEEC2EPSt18_Rb_tree_node_base, .-_ZNSt17_Rb_tree_iteratorISt4pairIKS0_IxxExEEC2EPSt18_Rb_tree_node_base
	.weak	_ZNSt17_Rb_tree_iteratorISt4pairIKS0_IxxExEEC1EPSt18_Rb_tree_node_base
	.set	_ZNSt17_Rb_tree_iteratorISt4pairIKS0_IxxExEEC1EPSt18_Rb_tree_node_base,_ZNSt17_Rb_tree_iteratorISt4pairIKS0_IxxExEEC2EPSt18_Rb_tree_node_base
	.section	.text._ZNSt8_Rb_treeISt4pairIxxES0_IKS1_xESt10_Select1stIS3_ESt4lessIS1_ESaIS3_EE15_M_destroy_nodeEPSt13_Rb_tree_nodeIS3_E,"axG",@progbits,_ZNSt8_Rb_treeISt4pairIxxES0_IKS1_xESt10_Select1stIS3_ESt4lessIS1_ESaIS3_EE15_M_destroy_nodeEPSt13_Rb_tree_nodeIS3_E,comdat
	.align 2
	.weak	_ZNSt8_Rb_treeISt4pairIxxES0_IKS1_xESt10_Select1stIS3_ESt4lessIS1_ESaIS3_EE15_M_destroy_nodeEPSt13_Rb_tree_nodeIS3_E
	.type	_ZNSt8_Rb_treeISt4pairIxxES0_IKS1_xESt10_Select1stIS3_ESt4lessIS1_ESaIS3_EE15_M_destroy_nodeEPSt13_Rb_tree_nodeIS3_E, @function
_ZNSt8_Rb_treeISt4pairIxxES0_IKS1_xESt10_Select1stIS3_ESt4lessIS1_ESaIS3_EE15_M_destroy_nodeEPSt13_Rb_tree_nodeIS3_E:
.LFB9482:
	.cfi_startproc
	endbr64
	pushq	%rbp
	.cfi_def_cfa_offset 16
	.cfi_offset 6, -16
	movq	%rsp, %rbp
	.cfi_def_cfa_register 6
	pushq	%rbx
	subq	$24, %rsp
	.cfi_offset 3, -24
	movq	%rdi, -24(%rbp)
	movq	%rsi, -32(%rbp)
	movq	-32(%rbp), %rax
	movq	%rax, %rdi
	call	_ZNSt13_Rb_tree_nodeISt4pairIKS0_IxxExEE9_M_valptrEv
	movq	%rax, %rbx
	movq	-24(%rbp), %rax
	movq	%rax, %rdi
	call	_ZNSt8_Rb_treeISt4pairIxxES0_IKS1_xESt10_Select1stIS3_ESt4lessIS1_ESaIS3_EE21_M_get_Node_allocatorEv
	movq	%rbx, %rsi
	movq	%rax, %rdi
	call	_ZNSt16allocator_traitsISaISt13_Rb_tree_nodeISt4pairIKS1_IxxExEEEE7destroyIS4_EEvRS6_PT_
	nop
	addq	$24, %rsp
	popq	%rbx
	popq	%rbp
	.cfi_def_cfa 7, 8
	ret
	.cfi_endproc
.LFE9482:
	.size	_ZNSt8_Rb_treeISt4pairIxxES0_IKS1_xESt10_Select1stIS3_ESt4lessIS1_ESaIS3_EE15_M_destroy_nodeEPSt13_Rb_tree_nodeIS3_E, .-_ZNSt8_Rb_treeISt4pairIxxES0_IKS1_xESt10_Select1stIS3_ESt4lessIS1_ESaIS3_EE15_M_destroy_nodeEPSt13_Rb_tree_nodeIS3_E
	.section	.text._ZNSt8_Rb_treeISt4pairIxxES0_IKS1_xESt10_Select1stIS3_ESt4lessIS1_ESaIS3_EE11_M_put_nodeEPSt13_Rb_tree_nodeIS3_E,"axG",@progbits,_ZNSt8_Rb_treeISt4pairIxxES0_IKS1_xESt10_Select1stIS3_ESt4lessIS1_ESaIS3_EE11_M_put_nodeEPSt13_Rb_tree_nodeIS3_E,comdat
	.align 2
	.weak	_ZNSt8_Rb_treeISt4pairIxxES0_IKS1_xESt10_Select1stIS3_ESt4lessIS1_ESaIS3_EE11_M_put_nodeEPSt13_Rb_tree_nodeIS3_E
	.type	_ZNSt8_Rb_treeISt4pairIxxES0_IKS1_xESt10_Select1stIS3_ESt4lessIS1_ESaIS3_EE11_M_put_nodeEPSt13_Rb_tree_nodeIS3_E, @function
_ZNSt8_Rb_treeISt4pairIxxES0_IKS1_xESt10_Select1stIS3_ESt4lessIS1_ESaIS3_EE11_M_put_nodeEPSt13_Rb_tree_nodeIS3_E:
.LFB9483:
	.cfi_startproc
	.cfi_personality 0x9b,DW.ref.__gxx_personality_v0
	.cfi_lsda 0x1b,.LLSDA9483
	endbr64
	pushq	%rbp
	.cfi_def_cfa_offset 16
	.cfi_offset 6, -16
	movq	%rsp, %rbp
	.cfi_def_cfa_register 6
	subq	$16, %rsp
	movq	%rdi, -8(%rbp)
	movq	%rsi, -16(%rbp)
	movq	-8(%rbp), %rax
	movq	%rax, %rdi
	call	_ZNSt8_Rb_treeISt4pairIxxES0_IKS1_xESt10_Select1stIS3_ESt4lessIS1_ESaIS3_EE21_M_get_Node_allocatorEv
	movq	%rax, %rcx
	movq	-16(%rbp), %rax
	movl	$1, %edx
	movq	%rax, %rsi
	movq	%rcx, %rdi
	call	_ZNSt16allocator_traitsISaISt13_Rb_tree_nodeISt4pairIKS1_IxxExEEEE10deallocateERS6_PS5_m
	nop
	leave
	.cfi_def_cfa 7, 8
	ret
	.cfi_endproc
.LFE9483:
	.section	.gcc_except_table._ZNSt8_Rb_treeISt4pairIxxES0_IKS1_xESt10_Select1stIS3_ESt4lessIS1_ESaIS3_EE11_M_put_nodeEPSt13_Rb_tree_nodeIS3_E,"aG",@progbits,_ZNSt8_Rb_treeISt4pairIxxES0_IKS1_xESt10_Select1stIS3_ESt4lessIS1_ESaIS3_EE11_M_put_nodeEPSt13_Rb_tree_nodeIS3_E,comdat
.LLSDA9483:
	.byte	0xff
	.byte	0xff
	.byte	0x1
	.uleb128 .LLSDACSE9483-.LLSDACSB9483
.LLSDACSB9483:
.LLSDACSE9483:
	.section	.text._ZNSt8_Rb_treeISt4pairIxxES0_IKS1_xESt10_Select1stIS3_ESt4lessIS1_ESaIS3_EE11_M_put_nodeEPSt13_Rb_tree_nodeIS3_E,"axG",@progbits,_ZNSt8_Rb_treeISt4pairIxxES0_IKS1_xESt10_Select1stIS3_ESt4lessIS1_ESaIS3_EE11_M_put_nodeEPSt13_Rb_tree_nodeIS3_E,comdat
	.size	_ZNSt8_Rb_treeISt4pairIxxES0_IKS1_xESt10_Select1stIS3_ESt4lessIS1_ESaIS3_EE11_M_put_nodeEPSt13_Rb_tree_nodeIS3_E, .-_ZNSt8_Rb_treeISt4pairIxxES0_IKS1_xESt10_Select1stIS3_ESt4lessIS1_ESaIS3_EE11_M_put_nodeEPSt13_Rb_tree_nodeIS3_E
	.section	.text._ZNSt8_Rb_treeISt4pairIxxES0_IKS1_xESt10_Select1stIS3_ESt4lessIS1_ESaIS3_EE6_M_endEv,"axG",@progbits,_ZNSt8_Rb_treeISt4pairIxxES0_IKS1_xESt10_Select1stIS3_ESt4lessIS1_ESaIS3_EE6_M_endEv,comdat
	.align 2
	.weak	_ZNSt8_Rb_treeISt4pairIxxES0_IKS1_xESt10_Select1stIS3_ESt4lessIS1_ESaIS3_EE6_M_endEv
	.type	_ZNSt8_Rb_treeISt4pairIxxES0_IKS1_xESt10_Select1stIS3_ESt4lessIS1_ESaIS3_EE6_M_endEv, @function
_ZNSt8_Rb_treeISt4pairIxxES0_IKS1_xESt10_Select1stIS3_ESt4lessIS1_ESaIS3_EE6_M_endEv:
.LFB9484:
	.cfi_startproc
	endbr64
	pushq	%rbp
	.cfi_def_cfa_offset 16
	.cfi_offset 6, -16
	movq	%rsp, %rbp
	.cfi_def_cfa_register 6
	movq	%rdi, -8(%rbp)
	movq	-8(%rbp), %rax
	addq	$8, %rax
	popq	%rbp
	.cfi_def_cfa 7, 8
	ret
	.cfi_endproc
.LFE9484:
	.size	_ZNSt8_Rb_treeISt4pairIxxES0_IKS1_xESt10_Select1stIS3_ESt4lessIS1_ESaIS3_EE6_M_endEv, .-_ZNSt8_Rb_treeISt4pairIxxES0_IKS1_xESt10_Select1stIS3_ESt4lessIS1_ESaIS3_EE6_M_endEv
	.section	.text._ZNSt8_Rb_treeISt4pairIxxES0_IKS1_xESt10_Select1stIS3_ESt4lessIS1_ESaIS3_EE14_M_lower_boundEPSt13_Rb_tree_nodeIS3_EPSt18_Rb_tree_node_baseRS2_,"axG",@progbits,_ZNSt8_Rb_treeISt4pairIxxES0_IKS1_xESt10_Select1stIS3_ESt4lessIS1_ESaIS3_EE14_M_lower_boundEPSt13_Rb_tree_nodeIS3_EPSt18_Rb_tree_node_baseRS2_,comdat
	.align 2
	.weak	_ZNSt8_Rb_treeISt4pairIxxES0_IKS1_xESt10_Select1stIS3_ESt4lessIS1_ESaIS3_EE14_M_lower_boundEPSt13_Rb_tree_nodeIS3_EPSt18_Rb_tree_node_baseRS2_
	.type	_ZNSt8_Rb_treeISt4pairIxxES0_IKS1_xESt10_Select1stIS3_ESt4lessIS1_ESaIS3_EE14_M_lower_boundEPSt13_Rb_tree_nodeIS3_EPSt18_Rb_tree_node_baseRS2_, @function
_ZNSt8_Rb_treeISt4pairIxxES0_IKS1_xESt10_Select1stIS3_ESt4lessIS1_ESaIS3_EE14_M_lower_boundEPSt13_Rb_tree_nodeIS3_EPSt18_Rb_tree_node_baseRS2_:
.LFB9485:
	.cfi_startproc
	endbr64
	pushq	%rbp
	.cfi_def_cfa_offset 16
	.cfi_offset 6, -16
	movq	%rsp, %rbp
	.cfi_def_cfa_register 6
	pushq	%rbx
	subq	$56, %rsp
	.cfi_offset 3, -24
	movq	%rdi, -40(%rbp)
	movq	%rsi, -48(%rbp)
	movq	%rdx, -56(%rbp)
	movq	%rcx, -64(%rbp)
	movq	%fs:40, %rax
	movq	%rax, -24(%rbp)
	xorl	%eax, %eax
.L157:
	cmpq	$0, -48(%rbp)
	je	.L154
	movq	-40(%rbp), %rbx
	movq	-48(%rbp), %rax
	movq	%rax, %rdi
	call	_ZNSt8_Rb_treeISt4pairIxxES0_IKS1_xESt10_Select1stIS3_ESt4lessIS1_ESaIS3_EE6_S_keyEPKSt13_Rb_tree_nodeIS3_E
	movq	%rax, %rcx
	movq	-64(%rbp), %rax
	movq	%rax, %rdx
	movq	%rcx, %rsi
	movq	%rbx, %rdi
	call	_ZNKSt4lessISt4pairIxxEEclERKS1_S4_
	xorl	$1, %eax
	testb	%al, %al
	je	.L155
	movq	-48(%rbp), %rax
	movq	%rax, -56(%rbp)
	movq	-48(%rbp), %rax
	movq	%rax, %rdi
	call	_ZNSt8_Rb_treeISt4pairIxxES0_IKS1_xESt10_Select1stIS3_ESt4lessIS1_ESaIS3_EE7_S_leftEPSt18_Rb_tree_node_base
	movq	%rax, -48(%rbp)
	jmp	.L157
.L155:
	movq	-48(%rbp), %rax
	movq	%rax, %rdi
	call	_ZNSt8_Rb_treeISt4pairIxxES0_IKS1_xESt10_Select1stIS3_ESt4lessIS1_ESaIS3_EE8_S_rightEPSt18_Rb_tree_node_base
	movq	%rax, -48(%rbp)
	jmp	.L157
.L154:
	movq	-56(%rbp), %rdx
	leaq	-32(%rbp), %rax
	movq	%rdx, %rsi
	movq	%rax, %rdi
	call	_ZNSt17_Rb_tree_iteratorISt4pairIKS0_IxxExEEC1EPSt18_Rb_tree_node_base
	movq	-32(%rbp), %rax
	movq	-24(%rbp), %rbx
	xorq	%fs:40, %rbx
	je	.L159
	call	__stack_chk_fail@PLT
.L159:
	addq	$56, %rsp
	popq	%rbx
	popq	%rbp
	.cfi_def_cfa 7, 8
	ret
	.cfi_endproc
.LFE9485:
	.size	_ZNSt8_Rb_treeISt4pairIxxES0_IKS1_xESt10_Select1stIS3_ESt4lessIS1_ESaIS3_EE14_M_lower_boundEPSt13_Rb_tree_nodeIS3_EPSt18_Rb_tree_node_baseRS2_, .-_ZNSt8_Rb_treeISt4pairIxxES0_IKS1_xESt10_Select1stIS3_ESt4lessIS1_ESaIS3_EE14_M_lower_boundEPSt13_Rb_tree_nodeIS3_EPSt18_Rb_tree_node_baseRS2_
	.section	.text._ZN9__gnu_cxx16__aligned_membufISt4pairIKS1_IxxExEE6_M_ptrEv,"axG",@progbits,_ZN9__gnu_cxx16__aligned_membufISt4pairIKS1_IxxExEE6_M_ptrEv,comdat
	.align 2
	.weak	_ZN9__gnu_cxx16__aligned_membufISt4pairIKS1_IxxExEE6_M_ptrEv
	.type	_ZN9__gnu_cxx16__aligned_membufISt4pairIKS1_IxxExEE6_M_ptrEv, @function
_ZN9__gnu_cxx16__aligned_membufISt4pairIKS1_IxxExEE6_M_ptrEv:
.LFB9486:
	.cfi_startproc
	endbr64
	pushq	%rbp
	.cfi_def_cfa_offset 16
	.cfi_offset 6, -16
	movq	%rsp, %rbp
	.cfi_def_cfa_register 6
	subq	$16, %rsp
	movq	%rdi, -8(%rbp)
	movq	-8(%rbp), %rax
	movq	%rax, %rdi
	call	_ZN9__gnu_cxx16__aligned_membufISt4pairIKS1_IxxExEE7_M_addrEv
	leave
	.cfi_def_cfa 7, 8
	ret
	.cfi_endproc
.LFE9486:
	.size	_ZN9__gnu_cxx16__aligned_membufISt4pairIKS1_IxxExEE6_M_ptrEv, .-_ZN9__gnu_cxx16__aligned_membufISt4pairIKS1_IxxExEE6_M_ptrEv
	.section	.text._ZNSt11_Tuple_implILm0EJOSt4pairIxxEEEC2IS1_EEOT_,"axG",@progbits,_ZNSt11_Tuple_implILm0EJOSt4pairIxxEEEC5IS1_EEOT_,comdat
	.align 2
	.weak	_ZNSt11_Tuple_implILm0EJOSt4pairIxxEEEC2IS1_EEOT_
	.type	_ZNSt11_Tuple_implILm0EJOSt4pairIxxEEEC2IS1_EEOT_, @function
_ZNSt11_Tuple_implILm0EJOSt4pairIxxEEEC2IS1_EEOT_:
.LFB9488:
	.cfi_startproc
	endbr64
	pushq	%rbp
	.cfi_def_cfa_offset 16
	.cfi_offset 6, -16
	movq	%rsp, %rbp
	.cfi_def_cfa_register 6
	pushq	%rbx
	subq	$24, %rsp
	.cfi_offset 3, -24
	movq	%rdi, -24(%rbp)
	movq	%rsi, -32(%rbp)
	movq	-24(%rbp), %rbx
	movq	-32(%rbp), %rax
	movq	%rax, %rdi
	call	_ZSt7forwardISt4pairIxxEEOT_RNSt16remove_referenceIS2_E4typeE
	movq	%rax, %rsi
	movq	%rbx, %rdi
	call	_ZNSt10_Head_baseILm0EOSt4pairIxxELb0EEC2IS1_EEOT_
	nop
	addq	$24, %rsp
	popq	%rbx
	popq	%rbp
	.cfi_def_cfa 7, 8
	ret
	.cfi_endproc
.LFE9488:
	.size	_ZNSt11_Tuple_implILm0EJOSt4pairIxxEEEC2IS1_EEOT_, .-_ZNSt11_Tuple_implILm0EJOSt4pairIxxEEEC2IS1_EEOT_
	.weak	_ZNSt11_Tuple_implILm0EJOSt4pairIxxEEEC1IS1_EEOT_
	.set	_ZNSt11_Tuple_implILm0EJOSt4pairIxxEEEC1IS1_EEOT_,_ZNSt11_Tuple_implILm0EJOSt4pairIxxEEEC2IS1_EEOT_
	.section	.text._ZNSt11_Tuple_implILm0EJOSt4pairIxxEEE7_M_headERS3_,"axG",@progbits,_ZNSt11_Tuple_implILm0EJOSt4pairIxxEEE7_M_headERS3_,comdat
	.weak	_ZNSt11_Tuple_implILm0EJOSt4pairIxxEEE7_M_headERS3_
	.type	_ZNSt11_Tuple_implILm0EJOSt4pairIxxEEE7_M_headERS3_, @function
_ZNSt11_Tuple_implILm0EJOSt4pairIxxEEE7_M_headERS3_:
.LFB9490:
	.cfi_startproc
	endbr64
	pushq	%rbp
	.cfi_def_cfa_offset 16
	.cfi_offset 6, -16
	movq	%rsp, %rbp
	.cfi_def_cfa_register 6
	subq	$16, %rsp
	movq	%rdi, -8(%rbp)
	movq	-8(%rbp), %rax
	movq	%rax, %rdi
	call	_ZNSt10_Head_baseILm0EOSt4pairIxxELb0EE7_M_headERS3_
	leave
	.cfi_def_cfa 7, 8
	ret
	.cfi_endproc
.LFE9490:
	.size	_ZNSt11_Tuple_implILm0EJOSt4pairIxxEEE7_M_headERS3_, .-_ZNSt11_Tuple_implILm0EJOSt4pairIxxEEE7_M_headERS3_
	.section	.text._ZSt7forwardIOSt4pairIxxEEOT_RNSt16remove_referenceIS3_E4typeE,"axG",@progbits,_ZSt7forwardIOSt4pairIxxEEOT_RNSt16remove_referenceIS3_E4typeE,comdat
	.weak	_ZSt7forwardIOSt4pairIxxEEOT_RNSt16remove_referenceIS3_E4typeE
	.type	_ZSt7forwardIOSt4pairIxxEEOT_RNSt16remove_referenceIS3_E4typeE, @function
_ZSt7forwardIOSt4pairIxxEEOT_RNSt16remove_referenceIS3_E4typeE:
.LFB9491:
	.cfi_startproc
	endbr64
	pushq	%rbp
	.cfi_def_cfa_offset 16
	.cfi_offset 6, -16
	movq	%rsp, %rbp
	.cfi_def_cfa_register 6
	movq	%rdi, -8(%rbp)
	movq	-8(%rbp), %rax
	popq	%rbp
	.cfi_def_cfa 7, 8
	ret
	.cfi_endproc
.LFE9491:
	.size	_ZSt7forwardIOSt4pairIxxEEOT_RNSt16remove_referenceIS3_E4typeE, .-_ZSt7forwardIOSt4pairIxxEEOT_RNSt16remove_referenceIS3_E4typeE
	.section	.text._ZNSt10_Head_baseILm0EOSt4pairIxxELb0EEC2IS1_EEOT_,"axG",@progbits,_ZNSt10_Head_baseILm0EOSt4pairIxxELb0EEC5IS1_EEOT_,comdat
	.align 2
	.weak	_ZNSt10_Head_baseILm0EOSt4pairIxxELb0EEC2IS1_EEOT_
	.type	_ZNSt10_Head_baseILm0EOSt4pairIxxELb0EEC2IS1_EEOT_, @function
_ZNSt10_Head_baseILm0EOSt4pairIxxELb0EEC2IS1_EEOT_:
.LFB9493:
	.cfi_startproc
	endbr64
	pushq	%rbp
	.cfi_def_cfa_offset 16
	.cfi_offset 6, -16
	movq	%rsp, %rbp
	.cfi_def_cfa_register 6
	subq	$16, %rsp
	movq	%rdi, -8(%rbp)
	movq	%rsi, -16(%rbp)
	movq	-16(%rbp), %rax
	movq	%rax, %rdi
	call	_ZSt7forwardISt4pairIxxEEOT_RNSt16remove_referenceIS2_E4typeE
	movq	-8(%rbp), %rdx
	movq	%rax, (%rdx)
	nop
	leave
	.cfi_def_cfa 7, 8
	ret
	.cfi_endproc
.LFE9493:
	.size	_ZNSt10_Head_baseILm0EOSt4pairIxxELb0EEC2IS1_EEOT_, .-_ZNSt10_Head_baseILm0EOSt4pairIxxELb0EEC2IS1_EEOT_
	.weak	_ZNSt10_Head_baseILm0EOSt4pairIxxELb0EEC1IS1_EEOT_
	.set	_ZNSt10_Head_baseILm0EOSt4pairIxxELb0EEC1IS1_EEOT_,_ZNSt10_Head_baseILm0EOSt4pairIxxELb0EEC2IS1_EEOT_
	.section	.text._ZNSt8_Rb_treeISt4pairIxxES0_IKS1_xESt10_Select1stIS3_ESt4lessIS1_ESaIS3_EE11_M_get_nodeEv,"axG",@progbits,_ZNSt8_Rb_treeISt4pairIxxES0_IKS1_xESt10_Select1stIS3_ESt4lessIS1_ESaIS3_EE11_M_get_nodeEv,comdat
	.align 2
	.weak	_ZNSt8_Rb_treeISt4pairIxxES0_IKS1_xESt10_Select1stIS3_ESt4lessIS1_ESaIS3_EE11_M_get_nodeEv
	.type	_ZNSt8_Rb_treeISt4pairIxxES0_IKS1_xESt10_Select1stIS3_ESt4lessIS1_ESaIS3_EE11_M_get_nodeEv, @function
_ZNSt8_Rb_treeISt4pairIxxES0_IKS1_xESt10_Select1stIS3_ESt4lessIS1_ESaIS3_EE11_M_get_nodeEv:
.LFB9495:
	.cfi_startproc
	endbr64
	pushq	%rbp
	.cfi_def_cfa_offset 16
	.cfi_offset 6, -16
	movq	%rsp, %rbp
	.cfi_def_cfa_register 6
	subq	$16, %rsp
	movq	%rdi, -8(%rbp)
	movq	-8(%rbp), %rax
	movq	%rax, %rdi
	call	_ZNSt8_Rb_treeISt4pairIxxES0_IKS1_xESt10_Select1stIS3_ESt4lessIS1_ESaIS3_EE21_M_get_Node_allocatorEv
	movl	$1, %esi
	movq	%rax, %rdi
	call	_ZNSt16allocator_traitsISaISt13_Rb_tree_nodeISt4pairIKS1_IxxExEEEE8allocateERS6_m
	leave
	.cfi_def_cfa 7, 8
	ret
	.cfi_endproc
.LFE9495:
	.size	_ZNSt8_Rb_treeISt4pairIxxES0_IKS1_xESt10_Select1stIS3_ESt4lessIS1_ESaIS3_EE11_M_get_nodeEv, .-_ZNSt8_Rb_treeISt4pairIxxES0_IKS1_xESt10_Select1stIS3_ESt4lessIS1_ESaIS3_EE11_M_get_nodeEv
	.section	.text._ZNSt8_Rb_treeISt4pairIxxES0_IKS1_xESt10_Select1stIS3_ESt4lessIS1_ESaIS3_EE17_M_construct_nodeIJRKSt21piecewise_construct_tSt5tupleIJOS1_EESE_IJEEEEEvPSt13_Rb_tree_nodeIS3_EDpOT_,"axG",@progbits,_ZNSt8_Rb_treeISt4pairIxxES0_IKS1_xESt10_Select1stIS3_ESt4lessIS1_ESaIS3_EE17_M_construct_nodeIJRKSt21piecewise_construct_tSt5tupleIJOS1_EESE_IJEEEEEvPSt13_Rb_tree_nodeIS3_EDpOT_,comdat
	.align 2
	.weak	_ZNSt8_Rb_treeISt4pairIxxES0_IKS1_xESt10_Select1stIS3_ESt4lessIS1_ESaIS3_EE17_M_construct_nodeIJRKSt21piecewise_construct_tSt5tupleIJOS1_EESE_IJEEEEEvPSt13_Rb_tree_nodeIS3_EDpOT_
	.type	_ZNSt8_Rb_treeISt4pairIxxES0_IKS1_xESt10_Select1stIS3_ESt4lessIS1_ESaIS3_EE17_M_construct_nodeIJRKSt21piecewise_construct_tSt5tupleIJOS1_EESE_IJEEEEEvPSt13_Rb_tree_nodeIS3_EDpOT_, @function
_ZNSt8_Rb_treeISt4pairIxxES0_IKS1_xESt10_Select1stIS3_ESt4lessIS1_ESaIS3_EE17_M_construct_nodeIJRKSt21piecewise_construct_tSt5tupleIJOS1_EESE_IJEEEEEvPSt13_Rb_tree_nodeIS3_EDpOT_:
.LFB9496:
	.cfi_startproc
	.cfi_personality 0x9b,DW.ref.__gxx_personality_v0
	.cfi_lsda 0x1b,.LLSDA9496
	endbr64
	pushq	%rbp
	.cfi_def_cfa_offset 16
	.cfi_offset 6, -16
	movq	%rsp, %rbp
	.cfi_def_cfa_register 6
	pushq	%r14
	pushq	%r13
	pushq	%r12
	pushq	%rbx
	subq	$48, %rsp
	.cfi_offset 14, -24
	.cfi_offset 13, -32
	.cfi_offset 12, -40
	.cfi_offset 3, -48
	movq	%rdi, -40(%rbp)
	movq	%rsi, -48(%rbp)
	movq	%rdx, -56(%rbp)
	movq	%rcx, -64(%rbp)
	movq	%r8, -72(%rbp)
	movq	-48(%rbp), %rax
	movq	%rax, %rsi
	movl	$56, %edi
	call	_ZnwmPv
	movq	-72(%rbp), %rax
	movq	%rax, %rdi
	call	_ZSt7forwardISt5tupleIJEEEOT_RNSt16remove_referenceIS2_E4typeE
	movq	%rax, %r14
	movq	-64(%rbp), %rax
	movq	%rax, %rdi
	call	_ZSt7forwardISt5tupleIJOSt4pairIxxEEEEOT_RNSt16remove_referenceIS5_E4typeE
	movq	%rax, %r13
	movq	-56(%rbp), %rax
	movq	%rax, %rdi
	call	_ZSt7forwardIRKSt21piecewise_construct_tEOT_RNSt16remove_referenceIS3_E4typeE
	movq	%rax, %r12
	movq	-48(%rbp), %rax
	movq	%rax, %rdi
	call	_ZNSt13_Rb_tree_nodeISt4pairIKS0_IxxExEE9_M_valptrEv
	movq	%rax, %rbx
	movq	-40(%rbp), %rax
	movq	%rax, %rdi
	call	_ZNSt8_Rb_treeISt4pairIxxES0_IKS1_xESt10_Select1stIS3_ESt4lessIS1_ESaIS3_EE21_M_get_Node_allocatorEv
	movq	%r14, %r8
	movq	%r13, %rcx
	movq	%r12, %rdx
	movq	%rbx, %rsi
	movq	%rax, %rdi
.LEHB7:
	call	_ZNSt16allocator_traitsISaISt13_Rb_tree_nodeISt4pairIKS1_IxxExEEEE9constructIS4_JRKSt21piecewise_construct_tSt5tupleIJOS2_EESC_IJEEEEEvRS6_PT_DpOT0_
.LEHE7:
	jmp	.L175
.L173:
	endbr64
	movq	%rax, %rdi
	call	__cxa_begin_catch@PLT
	movq	-48(%rbp), %rdx
	movq	-40(%rbp), %rax
	movq	%rdx, %rsi
	movq	%rax, %rdi
	call	_ZNSt8_Rb_treeISt4pairIxxES0_IKS1_xESt10_Select1stIS3_ESt4lessIS1_ESaIS3_EE11_M_put_nodeEPSt13_Rb_tree_nodeIS3_E
.LEHB8:
	call	__cxa_rethrow@PLT
.LEHE8:
.L174:
	endbr64
	movq	%rax, %rbx
	call	__cxa_end_catch@PLT
	movq	%rbx, %rax
	movq	%rax, %rdi
.LEHB9:
	call	_Unwind_Resume@PLT
.LEHE9:
.L175:
	addq	$48, %rsp
	popq	%rbx
	popq	%r12
	popq	%r13
	popq	%r14
	popq	%rbp
	.cfi_def_cfa 7, 8
	ret
	.cfi_endproc
.LFE9496:
	.section	.gcc_except_table._ZNSt8_Rb_treeISt4pairIxxES0_IKS1_xESt10_Select1stIS3_ESt4lessIS1_ESaIS3_EE17_M_construct_nodeIJRKSt21piecewise_construct_tSt5tupleIJOS1_EESE_IJEEEEEvPSt13_Rb_tree_nodeIS3_EDpOT_,"aG",@progbits,_ZNSt8_Rb_treeISt4pairIxxES0_IKS1_xESt10_Select1stIS3_ESt4lessIS1_ESaIS3_EE17_M_construct_nodeIJRKSt21piecewise_construct_tSt5tupleIJOS1_EESE_IJEEEEEvPSt13_Rb_tree_nodeIS3_EDpOT_,comdat
	.align 4
.LLSDA9496:
	.byte	0xff
	.byte	0x9b
	.uleb128 .LLSDATT9496-.LLSDATTD9496
.LLSDATTD9496:
	.byte	0x1
	.uleb128 .LLSDACSE9496-.LLSDACSB9496
.LLSDACSB9496:
	.uleb128 .LEHB7-.LFB9496
	.uleb128 .LEHE7-.LEHB7
	.uleb128 .L173-.LFB9496
	.uleb128 0x1
	.uleb128 .LEHB8-.LFB9496
	.uleb128 .LEHE8-.LEHB8
	.uleb128 .L174-.LFB9496
	.uleb128 0
	.uleb128 .LEHB9-.LFB9496
	.uleb128 .LEHE9-.LEHB9
	.uleb128 0
	.uleb128 0
.LLSDACSE9496:
	.byte	0x1
	.byte	0
	.align 4
	.long	0

.LLSDATT9496:
	.section	.text._ZNSt8_Rb_treeISt4pairIxxES0_IKS1_xESt10_Select1stIS3_ESt4lessIS1_ESaIS3_EE17_M_construct_nodeIJRKSt21piecewise_construct_tSt5tupleIJOS1_EESE_IJEEEEEvPSt13_Rb_tree_nodeIS3_EDpOT_,"axG",@progbits,_ZNSt8_Rb_treeISt4pairIxxES0_IKS1_xESt10_Select1stIS3_ESt4lessIS1_ESaIS3_EE17_M_construct_nodeIJRKSt21piecewise_construct_tSt5tupleIJOS1_EESE_IJEEEEEvPSt13_Rb_tree_nodeIS3_EDpOT_,comdat
	.size	_ZNSt8_Rb_treeISt4pairIxxES0_IKS1_xESt10_Select1stIS3_ESt4lessIS1_ESaIS3_EE17_M_construct_nodeIJRKSt21piecewise_construct_tSt5tupleIJOS1_EESE_IJEEEEEvPSt13_Rb_tree_nodeIS3_EDpOT_, .-_ZNSt8_Rb_treeISt4pairIxxES0_IKS1_xESt10_Select1stIS3_ESt4lessIS1_ESaIS3_EE17_M_construct_nodeIJRKSt21piecewise_construct_tSt5tupleIJOS1_EESE_IJEEEEEvPSt13_Rb_tree_nodeIS3_EDpOT_
	.section	.text._ZNKSt23_Rb_tree_const_iteratorISt4pairIKS0_IxxExEE13_M_const_castEv,"axG",@progbits,_ZNKSt23_Rb_tree_const_iteratorISt4pairIKS0_IxxExEE13_M_const_castEv,comdat
	.align 2
	.weak	_ZNKSt23_Rb_tree_const_iteratorISt4pairIKS0_IxxExEE13_M_const_castEv
	.type	_ZNKSt23_Rb_tree_const_iteratorISt4pairIKS0_IxxExEE13_M_const_castEv, @function
_ZNKSt23_Rb_tree_const_iteratorISt4pairIKS0_IxxExEE13_M_const_castEv:
.LFB9497:
	.cfi_startproc
	endbr64
	pushq	%rbp
	.cfi_def_cfa_offset 16
	.cfi_offset 6, -16
	movq	%rsp, %rbp
	.cfi_def_cfa_register 6
	subq	$32, %rsp
	movq	%rdi, -24(%rbp)
	movq	%fs:40, %rax
	movq	%rax, -8(%rbp)
	xorl	%eax, %eax
	movq	-24(%rbp), %rax
	movq	(%rax), %rdx
	leaq	-16(%rbp), %rax
	movq	%rdx, %rsi
	movq	%rax, %rdi
	call	_ZNSt17_Rb_tree_iteratorISt4pairIKS0_IxxExEEC1EPSt18_Rb_tree_node_base
	movq	-16(%rbp), %rax
	movq	-8(%rbp), %rcx
	xorq	%fs:40, %rcx
	je	.L178
	call	__stack_chk_fail@PLT
.L178:
	leave
	.cfi_def_cfa 7, 8
	ret
	.cfi_endproc
.LFE9497:
	.size	_ZNKSt23_Rb_tree_const_iteratorISt4pairIKS0_IxxExEE13_M_const_castEv, .-_ZNKSt23_Rb_tree_const_iteratorISt4pairIKS0_IxxExEE13_M_const_castEv
	.section	.text._ZNKSt8_Rb_treeISt4pairIxxES0_IKS1_xESt10_Select1stIS3_ESt4lessIS1_ESaIS3_EE4sizeEv,"axG",@progbits,_ZNKSt8_Rb_treeISt4pairIxxES0_IKS1_xESt10_Select1stIS3_ESt4lessIS1_ESaIS3_EE4sizeEv,comdat
	.align 2
	.weak	_ZNKSt8_Rb_treeISt4pairIxxES0_IKS1_xESt10_Select1stIS3_ESt4lessIS1_ESaIS3_EE4sizeEv
	.type	_ZNKSt8_Rb_treeISt4pairIxxES0_IKS1_xESt10_Select1stIS3_ESt4lessIS1_ESaIS3_EE4sizeEv, @function
_ZNKSt8_Rb_treeISt4pairIxxES0_IKS1_xESt10_Select1stIS3_ESt4lessIS1_ESaIS3_EE4sizeEv:
.LFB9498:
	.cfi_startproc
	endbr64
	pushq	%rbp
	.cfi_def_cfa_offset 16
	.cfi_offset 6, -16
	movq	%rsp, %rbp
	.cfi_def_cfa_register 6
	movq	%rdi, -8(%rbp)
	movq	-8(%rbp), %rax
	movq	40(%rax), %rax
	popq	%rbp
	.cfi_def_cfa 7, 8
	ret
	.cfi_endproc
.LFE9498:
	.size	_ZNKSt8_Rb_treeISt4pairIxxES0_IKS1_xESt10_Select1stIS3_ESt4lessIS1_ESaIS3_EE4sizeEv, .-_ZNKSt8_Rb_treeISt4pairIxxES0_IKS1_xESt10_Select1stIS3_ESt4lessIS1_ESaIS3_EE4sizeEv
	.section	.text._ZNSt8_Rb_treeISt4pairIxxES0_IKS1_xESt10_Select1stIS3_ESt4lessIS1_ESaIS3_EE12_M_rightmostEv,"axG",@progbits,_ZNSt8_Rb_treeISt4pairIxxES0_IKS1_xESt10_Select1stIS3_ESt4lessIS1_ESaIS3_EE12_M_rightmostEv,comdat
	.align 2
	.weak	_ZNSt8_Rb_treeISt4pairIxxES0_IKS1_xESt10_Select1stIS3_ESt4lessIS1_ESaIS3_EE12_M_rightmostEv
	.type	_ZNSt8_Rb_treeISt4pairIxxES0_IKS1_xESt10_Select1stIS3_ESt4lessIS1_ESaIS3_EE12_M_rightmostEv, @function
_ZNSt8_Rb_treeISt4pairIxxES0_IKS1_xESt10_Select1stIS3_ESt4lessIS1_ESaIS3_EE12_M_rightmostEv:
.LFB9499:
	.cfi_startproc
	endbr64
	pushq	%rbp
	.cfi_def_cfa_offset 16
	.cfi_offset 6, -16
	movq	%rsp, %rbp
	.cfi_def_cfa_register 6
	movq	%rdi, -8(%rbp)
	movq	-8(%rbp), %rax
	addq	$32, %rax
	popq	%rbp
	.cfi_def_cfa 7, 8
	ret
	.cfi_endproc
.LFE9499:
	.size	_ZNSt8_Rb_treeISt4pairIxxES0_IKS1_xESt10_Select1stIS3_ESt4lessIS1_ESaIS3_EE12_M_rightmostEv, .-_ZNSt8_Rb_treeISt4pairIxxES0_IKS1_xESt10_Select1stIS3_ESt4lessIS1_ESaIS3_EE12_M_rightmostEv
	.section	.text._ZNSt8_Rb_treeISt4pairIxxES0_IKS1_xESt10_Select1stIS3_ESt4lessIS1_ESaIS3_EE6_S_keyEPKSt18_Rb_tree_node_base,"axG",@progbits,_ZNSt8_Rb_treeISt4pairIxxES0_IKS1_xESt10_Select1stIS3_ESt4lessIS1_ESaIS3_EE6_S_keyEPKSt18_Rb_tree_node_base,comdat
	.weak	_ZNSt8_Rb_treeISt4pairIxxES0_IKS1_xESt10_Select1stIS3_ESt4lessIS1_ESaIS3_EE6_S_keyEPKSt18_Rb_tree_node_base
	.type	_ZNSt8_Rb_treeISt4pairIxxES0_IKS1_xESt10_Select1stIS3_ESt4lessIS1_ESaIS3_EE6_S_keyEPKSt18_Rb_tree_node_base, @function
_ZNSt8_Rb_treeISt4pairIxxES0_IKS1_xESt10_Select1stIS3_ESt4lessIS1_ESaIS3_EE6_S_keyEPKSt18_Rb_tree_node_base:
.LFB9500:
	.cfi_startproc
	endbr64
	pushq	%rbp
	.cfi_def_cfa_offset 16
	.cfi_offset 6, -16
	movq	%rsp, %rbp
	.cfi_def_cfa_register 6
	subq	$16, %rsp
	movq	%rdi, -8(%rbp)
	movq	-8(%rbp), %rax
	movq	%rax, %rdi
	call	_ZNSt8_Rb_treeISt4pairIxxES0_IKS1_xESt10_Select1stIS3_ESt4lessIS1_ESaIS3_EE6_S_keyEPKSt13_Rb_tree_nodeIS3_E
	leave
	.cfi_def_cfa 7, 8
	ret
	.cfi_endproc
.LFE9500:
	.size	_ZNSt8_Rb_treeISt4pairIxxES0_IKS1_xESt10_Select1stIS3_ESt4lessIS1_ESaIS3_EE6_S_keyEPKSt18_Rb_tree_node_base, .-_ZNSt8_Rb_treeISt4pairIxxES0_IKS1_xESt10_Select1stIS3_ESt4lessIS1_ESaIS3_EE6_S_keyEPKSt18_Rb_tree_node_base
	.section	.text._ZNSt4pairIPSt18_Rb_tree_node_baseS1_EC2IRS1_Lb1EEERKS1_OT_,"axG",@progbits,_ZNSt4pairIPSt18_Rb_tree_node_baseS1_EC5IRS1_Lb1EEERKS1_OT_,comdat
	.align 2
	.weak	_ZNSt4pairIPSt18_Rb_tree_node_baseS1_EC2IRS1_Lb1EEERKS1_OT_
	.type	_ZNSt4pairIPSt18_Rb_tree_node_baseS1_EC2IRS1_Lb1EEERKS1_OT_, @function
_ZNSt4pairIPSt18_Rb_tree_node_baseS1_EC2IRS1_Lb1EEERKS1_OT_:
.LFB9502:
	.cfi_startproc
	endbr64
	pushq	%rbp
	.cfi_def_cfa_offset 16
	.cfi_offset 6, -16
	movq	%rsp, %rbp
	.cfi_def_cfa_register 6
	subq	$32, %rsp
	movq	%rdi, -8(%rbp)
	movq	%rsi, -16(%rbp)
	movq	%rdx, -24(%rbp)
	movq	-16(%rbp), %rax
	movq	(%rax), %rdx
	movq	-8(%rbp), %rax
	movq	%rdx, (%rax)
	movq	-24(%rbp), %rax
	movq	%rax, %rdi
	call	_ZSt7forwardIRPSt18_Rb_tree_node_baseEOT_RNSt16remove_referenceIS3_E4typeE
	movq	(%rax), %rdx
	movq	-8(%rbp), %rax
	movq	%rdx, 8(%rax)
	nop
	leave
	.cfi_def_cfa 7, 8
	ret
	.cfi_endproc
.LFE9502:
	.size	_ZNSt4pairIPSt18_Rb_tree_node_baseS1_EC2IRS1_Lb1EEERKS1_OT_, .-_ZNSt4pairIPSt18_Rb_tree_node_baseS1_EC2IRS1_Lb1EEERKS1_OT_
	.weak	_ZNSt4pairIPSt18_Rb_tree_node_baseS1_EC1IRS1_Lb1EEERKS1_OT_
	.set	_ZNSt4pairIPSt18_Rb_tree_node_baseS1_EC1IRS1_Lb1EEERKS1_OT_,_ZNSt4pairIPSt18_Rb_tree_node_baseS1_EC2IRS1_Lb1EEERKS1_OT_
	.section	.text._ZNSt8_Rb_treeISt4pairIxxES0_IKS1_xESt10_Select1stIS3_ESt4lessIS1_ESaIS3_EE24_M_get_insert_unique_posERS2_,"axG",@progbits,_ZNSt8_Rb_treeISt4pairIxxES0_IKS1_xESt10_Select1stIS3_ESt4lessIS1_ESaIS3_EE24_M_get_insert_unique_posERS2_,comdat
	.align 2
	.weak	_ZNSt8_Rb_treeISt4pairIxxES0_IKS1_xESt10_Select1stIS3_ESt4lessIS1_ESaIS3_EE24_M_get_insert_unique_posERS2_
	.type	_ZNSt8_Rb_treeISt4pairIxxES0_IKS1_xESt10_Select1stIS3_ESt4lessIS1_ESaIS3_EE24_M_get_insert_unique_posERS2_, @function
_ZNSt8_Rb_treeISt4pairIxxES0_IKS1_xESt10_Select1stIS3_ESt4lessIS1_ESaIS3_EE24_M_get_insert_unique_posERS2_:
.LFB9504:
	.cfi_startproc
	endbr64
	pushq	%rbp
	.cfi_def_cfa_offset 16
	.cfi_offset 6, -16
	movq	%rsp, %rbp
	.cfi_def_cfa_register 6
	pushq	%rbx
	subq	$104, %rsp
	.cfi_offset 3, -24
	movq	%rdi, -104(%rbp)
	movq	%rsi, -112(%rbp)
	movq	%fs:40, %rax
	movq	%rax, -24(%rbp)
	xorl	%eax, %eax
	movq	-104(%rbp), %rax
	movq	%rax, %rdi
	call	_ZNSt8_Rb_treeISt4pairIxxES0_IKS1_xESt10_Select1stIS3_ESt4lessIS1_ESaIS3_EE8_M_beginEv
	movq	%rax, -80(%rbp)
	movq	-104(%rbp), %rax
	movq	%rax, %rdi
	call	_ZNSt8_Rb_treeISt4pairIxxES0_IKS1_xESt10_Select1stIS3_ESt4lessIS1_ESaIS3_EE6_M_endEv
	movq	%rax, -72(%rbp)
	movb	$1, -81(%rbp)
.L190:
	movq	-80(%rbp), %rax
	testq	%rax, %rax
	je	.L187
	movq	-80(%rbp), %rax
	movq	%rax, -72(%rbp)
	movq	-104(%rbp), %rbx
	movq	-80(%rbp), %rax
	movq	%rax, %rdi
	call	_ZNSt8_Rb_treeISt4pairIxxES0_IKS1_xESt10_Select1stIS3_ESt4lessIS1_ESaIS3_EE6_S_keyEPKSt13_Rb_tree_nodeIS3_E
	movq	%rax, %rdx
	movq	-112(%rbp), %rax
	movq	%rax, %rsi
	movq	%rbx, %rdi
	call	_ZNKSt4lessISt4pairIxxEEclERKS1_S4_
	movb	%al, -81(%rbp)
	cmpb	$0, -81(%rbp)
	je	.L188
	movq	-80(%rbp), %rax
	movq	%rax, %rdi
	call	_ZNSt8_Rb_treeISt4pairIxxES0_IKS1_xESt10_Select1stIS3_ESt4lessIS1_ESaIS3_EE7_S_leftEPSt18_Rb_tree_node_base
	jmp	.L189
.L188:
	movq	-80(%rbp), %rax
	movq	%rax, %rdi
	call	_ZNSt8_Rb_treeISt4pairIxxES0_IKS1_xESt10_Select1stIS3_ESt4lessIS1_ESaIS3_EE8_S_rightEPSt18_Rb_tree_node_base
.L189:
	movq	%rax, -80(%rbp)
	jmp	.L190
.L187:
	movq	-72(%rbp), %rdx
	leaq	-64(%rbp), %rax
	movq	%rdx, %rsi
	movq	%rax, %rdi
	call	_ZNSt17_Rb_tree_iteratorISt4pairIKS0_IxxExEEC1EPSt18_Rb_tree_node_base
	cmpb	$0, -81(%rbp)
	je	.L191
	movq	-104(%rbp), %rax
	movq	%rax, %rdi
	call	_ZNSt8_Rb_treeISt4pairIxxES0_IKS1_xESt10_Select1stIS3_ESt4lessIS1_ESaIS3_EE5beginEv
	movq	%rax, -48(%rbp)
	leaq	-48(%rbp), %rdx
	leaq	-64(%rbp), %rax
	movq	%rdx, %rsi
	movq	%rax, %rdi
	call	_ZSteqRKSt17_Rb_tree_iteratorISt4pairIKS0_IxxExEES6_
	testb	%al, %al
	je	.L192
	leaq	-72(%rbp), %rdx
	leaq	-80(%rbp), %rcx
	leaq	-48(%rbp), %rax
	movq	%rcx, %rsi
	movq	%rax, %rdi
	call	_ZNSt4pairIPSt18_Rb_tree_node_baseS1_EC1IRPSt13_Rb_tree_nodeIS_IKS_IxxExEERS1_Lb1EEEOT_OT0_
	movq	-48(%rbp), %rax
	movq	-40(%rbp), %rdx
	jmp	.L195
.L192:
	leaq	-64(%rbp), %rax
	movq	%rax, %rdi
	call	_ZNSt17_Rb_tree_iteratorISt4pairIKS0_IxxExEEmmEv
.L191:
	movq	-104(%rbp), %rbx
	movq	-64(%rbp), %rax
	movq	%rax, %rdi
	call	_ZNSt8_Rb_treeISt4pairIxxES0_IKS1_xESt10_Select1stIS3_ESt4lessIS1_ESaIS3_EE6_S_keyEPKSt18_Rb_tree_node_base
	movq	%rax, %rcx
	movq	-112(%rbp), %rax
	movq	%rax, %rdx
	movq	%rcx, %rsi
	movq	%rbx, %rdi
	call	_ZNKSt4lessISt4pairIxxEEclERKS1_S4_
	testb	%al, %al
	je	.L194
	leaq	-72(%rbp), %rdx
	leaq	-80(%rbp), %rcx
	leaq	-48(%rbp), %rax
	movq	%rcx, %rsi
	movq	%rax, %rdi
	call	_ZNSt4pairIPSt18_Rb_tree_node_baseS1_EC1IRPSt13_Rb_tree_nodeIS_IKS_IxxExEERS1_Lb1EEEOT_OT0_
	movq	-48(%rbp), %rax
	movq	-40(%rbp), %rdx
	jmp	.L195
.L194:
	movq	$0, -56(%rbp)
	leaq	-56(%rbp), %rdx
	leaq	-64(%rbp), %rcx
	leaq	-48(%rbp), %rax
	movq	%rcx, %rsi
	movq	%rax, %rdi
	call	_ZNSt4pairIPSt18_Rb_tree_node_baseS1_EC1IRS1_Lb1EEEOT_RKS1_
	movq	-48(%rbp), %rax
	movq	-40(%rbp), %rdx
.L195:
	movq	-24(%rbp), %rbx
	xorq	%fs:40, %rbx
	je	.L196
	call	__stack_chk_fail@PLT
.L196:
	addq	$104, %rsp
	popq	%rbx
	popq	%rbp
	.cfi_def_cfa 7, 8
	ret
	.cfi_endproc
.LFE9504:
	.size	_ZNSt8_Rb_treeISt4pairIxxES0_IKS1_xESt10_Select1stIS3_ESt4lessIS1_ESaIS3_EE24_M_get_insert_unique_posERS2_, .-_ZNSt8_Rb_treeISt4pairIxxES0_IKS1_xESt10_Select1stIS3_ESt4lessIS1_ESaIS3_EE24_M_get_insert_unique_posERS2_
	.section	.text._ZNSt8_Rb_treeISt4pairIxxES0_IKS1_xESt10_Select1stIS3_ESt4lessIS1_ESaIS3_EE11_M_leftmostEv,"axG",@progbits,_ZNSt8_Rb_treeISt4pairIxxES0_IKS1_xESt10_Select1stIS3_ESt4lessIS1_ESaIS3_EE11_M_leftmostEv,comdat
	.align 2
	.weak	_ZNSt8_Rb_treeISt4pairIxxES0_IKS1_xESt10_Select1stIS3_ESt4lessIS1_ESaIS3_EE11_M_leftmostEv
	.type	_ZNSt8_Rb_treeISt4pairIxxES0_IKS1_xESt10_Select1stIS3_ESt4lessIS1_ESaIS3_EE11_M_leftmostEv, @function
_ZNSt8_Rb_treeISt4pairIxxES0_IKS1_xESt10_Select1stIS3_ESt4lessIS1_ESaIS3_EE11_M_leftmostEv:
.LFB9509:
	.cfi_startproc
	endbr64
	pushq	%rbp
	.cfi_def_cfa_offset 16
	.cfi_offset 6, -16
	movq	%rsp, %rbp
	.cfi_def_cfa_register 6
	movq	%rdi, -8(%rbp)
	movq	-8(%rbp), %rax
	addq	$24, %rax
	popq	%rbp
	.cfi_def_cfa 7, 8
	ret
	.cfi_endproc
.LFE9509:
	.size	_ZNSt8_Rb_treeISt4pairIxxES0_IKS1_xESt10_Select1stIS3_ESt4lessIS1_ESaIS3_EE11_M_leftmostEv, .-_ZNSt8_Rb_treeISt4pairIxxES0_IKS1_xESt10_Select1stIS3_ESt4lessIS1_ESaIS3_EE11_M_leftmostEv
	.section	.text._ZNSt4pairIPSt18_Rb_tree_node_baseS1_EC2IRS1_S4_Lb1EEEOT_OT0_,"axG",@progbits,_ZNSt4pairIPSt18_Rb_tree_node_baseS1_EC5IRS1_S4_Lb1EEEOT_OT0_,comdat
	.align 2
	.weak	_ZNSt4pairIPSt18_Rb_tree_node_baseS1_EC2IRS1_S4_Lb1EEEOT_OT0_
	.type	_ZNSt4pairIPSt18_Rb_tree_node_baseS1_EC2IRS1_S4_Lb1EEEOT_OT0_, @function
_ZNSt4pairIPSt18_Rb_tree_node_baseS1_EC2IRS1_S4_Lb1EEEOT_OT0_:
.LFB9511:
	.cfi_startproc
	endbr64
	pushq	%rbp
	.cfi_def_cfa_offset 16
	.cfi_offset 6, -16
	movq	%rsp, %rbp
	.cfi_def_cfa_register 6
	subq	$32, %rsp
	movq	%rdi, -8(%rbp)
	movq	%rsi, -16(%rbp)
	movq	%rdx, -24(%rbp)
	movq	-16(%rbp), %rax
	movq	%rax, %rdi
	call	_ZSt7forwardIRPSt18_Rb_tree_node_baseEOT_RNSt16remove_referenceIS3_E4typeE
	movq	(%rax), %rdx
	movq	-8(%rbp), %rax
	movq	%rdx, (%rax)
	movq	-24(%rbp), %rax
	movq	%rax, %rdi
	call	_ZSt7forwardIRPSt18_Rb_tree_node_baseEOT_RNSt16remove_referenceIS3_E4typeE
	movq	(%rax), %rdx
	movq	-8(%rbp), %rax
	movq	%rdx, 8(%rax)
	nop
	leave
	.cfi_def_cfa 7, 8
	ret
	.cfi_endproc
.LFE9511:
	.size	_ZNSt4pairIPSt18_Rb_tree_node_baseS1_EC2IRS1_S4_Lb1EEEOT_OT0_, .-_ZNSt4pairIPSt18_Rb_tree_node_baseS1_EC2IRS1_S4_Lb1EEEOT_OT0_
	.weak	_ZNSt4pairIPSt18_Rb_tree_node_baseS1_EC1IRS1_S4_Lb1EEEOT_OT0_
	.set	_ZNSt4pairIPSt18_Rb_tree_node_baseS1_EC1IRS1_S4_Lb1EEEOT_OT0_,_ZNSt4pairIPSt18_Rb_tree_node_baseS1_EC2IRS1_S4_Lb1EEEOT_OT0_
	.section	.text._ZNSt17_Rb_tree_iteratorISt4pairIKS0_IxxExEEmmEv,"axG",@progbits,_ZNSt17_Rb_tree_iteratorISt4pairIKS0_IxxExEEmmEv,comdat
	.align 2
	.weak	_ZNSt17_Rb_tree_iteratorISt4pairIKS0_IxxExEEmmEv
	.type	_ZNSt17_Rb_tree_iteratorISt4pairIKS0_IxxExEEmmEv, @function
_ZNSt17_Rb_tree_iteratorISt4pairIKS0_IxxExEEmmEv:
.LFB9513:
	.cfi_startproc
	endbr64
	pushq	%rbp
	.cfi_def_cfa_offset 16
	.cfi_offset 6, -16
	movq	%rsp, %rbp
	.cfi_def_cfa_register 6
	subq	$16, %rsp
	movq	%rdi, -8(%rbp)
	movq	-8(%rbp), %rax
	movq	(%rax), %rax
	movq	%rax, %rdi
	call	_ZSt18_Rb_tree_decrementPSt18_Rb_tree_node_base@PLT
	movq	-8(%rbp), %rdx
	movq	%rax, (%rdx)
	movq	-8(%rbp), %rax
	leave
	.cfi_def_cfa 7, 8
	ret
	.cfi_endproc
.LFE9513:
	.size	_ZNSt17_Rb_tree_iteratorISt4pairIKS0_IxxExEEmmEv, .-_ZNSt17_Rb_tree_iteratorISt4pairIKS0_IxxExEEmmEv
	.section	.text._ZNSt17_Rb_tree_iteratorISt4pairIKS0_IxxExEEppEv,"axG",@progbits,_ZNSt17_Rb_tree_iteratorISt4pairIKS0_IxxExEEppEv,comdat
	.align 2
	.weak	_ZNSt17_Rb_tree_iteratorISt4pairIKS0_IxxExEEppEv
	.type	_ZNSt17_Rb_tree_iteratorISt4pairIKS0_IxxExEEppEv, @function
_ZNSt17_Rb_tree_iteratorISt4pairIKS0_IxxExEEppEv:
.LFB9514:
	.cfi_startproc
	endbr64
	pushq	%rbp
	.cfi_def_cfa_offset 16
	.cfi_offset 6, -16
	movq	%rsp, %rbp
	.cfi_def_cfa_register 6
	subq	$16, %rsp
	movq	%rdi, -8(%rbp)
	movq	-8(%rbp), %rax
	movq	(%rax), %rax
	movq	%rax, %rdi
	call	_ZSt18_Rb_tree_incrementPSt18_Rb_tree_node_base@PLT
	movq	-8(%rbp), %rdx
	movq	%rax, (%rdx)
	movq	-8(%rbp), %rax
	leave
	.cfi_def_cfa 7, 8
	ret
	.cfi_endproc
.LFE9514:
	.size	_ZNSt17_Rb_tree_iteratorISt4pairIKS0_IxxExEEppEv, .-_ZNSt17_Rb_tree_iteratorISt4pairIKS0_IxxExEEppEv
	.section	.text._ZNSt4pairIPSt18_Rb_tree_node_baseS1_EC2IRS1_Lb1EEEOT_RKS1_,"axG",@progbits,_ZNSt4pairIPSt18_Rb_tree_node_baseS1_EC5IRS1_Lb1EEEOT_RKS1_,comdat
	.align 2
	.weak	_ZNSt4pairIPSt18_Rb_tree_node_baseS1_EC2IRS1_Lb1EEEOT_RKS1_
	.type	_ZNSt4pairIPSt18_Rb_tree_node_baseS1_EC2IRS1_Lb1EEEOT_RKS1_, @function
_ZNSt4pairIPSt18_Rb_tree_node_baseS1_EC2IRS1_Lb1EEEOT_RKS1_:
.LFB9516:
	.cfi_startproc
	endbr64
	pushq	%rbp
	.cfi_def_cfa_offset 16
	.cfi_offset 6, -16
	movq	%rsp, %rbp
	.cfi_def_cfa_register 6
	subq	$32, %rsp
	movq	%rdi, -8(%rbp)
	movq	%rsi, -16(%rbp)
	movq	%rdx, -24(%rbp)
	movq	-16(%rbp), %rax
	movq	%rax, %rdi
	call	_ZSt7forwardIRPSt18_Rb_tree_node_baseEOT_RNSt16remove_referenceIS3_E4typeE
	movq	(%rax), %rdx
	movq	-8(%rbp), %rax
	movq	%rdx, (%rax)
	movq	-24(%rbp), %rax
	movq	(%rax), %rdx
	movq	-8(%rbp), %rax
	movq	%rdx, 8(%rax)
	nop
	leave
	.cfi_def_cfa 7, 8
	ret
	.cfi_endproc
.LFE9516:
	.size	_ZNSt4pairIPSt18_Rb_tree_node_baseS1_EC2IRS1_Lb1EEEOT_RKS1_, .-_ZNSt4pairIPSt18_Rb_tree_node_baseS1_EC2IRS1_Lb1EEEOT_RKS1_
	.weak	_ZNSt4pairIPSt18_Rb_tree_node_baseS1_EC1IRS1_Lb1EEEOT_RKS1_
	.set	_ZNSt4pairIPSt18_Rb_tree_node_baseS1_EC1IRS1_Lb1EEEOT_RKS1_,_ZNSt4pairIPSt18_Rb_tree_node_baseS1_EC2IRS1_Lb1EEEOT_RKS1_
	.section	.text._ZNKSt13_Rb_tree_nodeISt4pairIKS0_IxxExEE9_M_valptrEv,"axG",@progbits,_ZNKSt13_Rb_tree_nodeISt4pairIKS0_IxxExEE9_M_valptrEv,comdat
	.align 2
	.weak	_ZNKSt13_Rb_tree_nodeISt4pairIKS0_IxxExEE9_M_valptrEv
	.type	_ZNKSt13_Rb_tree_nodeISt4pairIKS0_IxxExEE9_M_valptrEv, @function
_ZNKSt13_Rb_tree_nodeISt4pairIKS0_IxxExEE9_M_valptrEv:
.LFB9518:
	.cfi_startproc
	endbr64
	pushq	%rbp
	.cfi_def_cfa_offset 16
	.cfi_offset 6, -16
	movq	%rsp, %rbp
	.cfi_def_cfa_register 6
	subq	$16, %rsp
	movq	%rdi, -8(%rbp)
	movq	-8(%rbp), %rax
	addq	$32, %rax
	movq	%rax, %rdi
	call	_ZNK9__gnu_cxx16__aligned_membufISt4pairIKS1_IxxExEE6_M_ptrEv
	leave
	.cfi_def_cfa 7, 8
	ret
	.cfi_endproc
.LFE9518:
	.size	_ZNKSt13_Rb_tree_nodeISt4pairIKS0_IxxExEE9_M_valptrEv, .-_ZNKSt13_Rb_tree_nodeISt4pairIKS0_IxxExEE9_M_valptrEv
	.section	.text._ZNKSt10_Select1stISt4pairIKS0_IxxExEEclERKS3_,"axG",@progbits,_ZNKSt10_Select1stISt4pairIKS0_IxxExEEclERKS3_,comdat
	.align 2
	.weak	_ZNKSt10_Select1stISt4pairIKS0_IxxExEEclERKS3_
	.type	_ZNKSt10_Select1stISt4pairIKS0_IxxExEEclERKS3_, @function
_ZNKSt10_Select1stISt4pairIKS0_IxxExEEclERKS3_:
.LFB9519:
	.cfi_startproc
	endbr64
	pushq	%rbp
	.cfi_def_cfa_offset 16
	.cfi_offset 6, -16
	movq	%rsp, %rbp
	.cfi_def_cfa_register 6
	movq	%rdi, -8(%rbp)
	movq	%rsi, -16(%rbp)
	movq	-16(%rbp), %rax
	popq	%rbp
	.cfi_def_cfa 7, 8
	ret
	.cfi_endproc
.LFE9519:
	.size	_ZNKSt10_Select1stISt4pairIKS0_IxxExEEclERKS3_, .-_ZNKSt10_Select1stISt4pairIKS0_IxxExEEclERKS3_
	.section	.text._ZNSt8_Rb_treeISt4pairIxxES0_IKS1_xESt10_Select1stIS3_ESt4lessIS1_ESaIS3_EE21_M_get_Node_allocatorEv,"axG",@progbits,_ZNSt8_Rb_treeISt4pairIxxES0_IKS1_xESt10_Select1stIS3_ESt4lessIS1_ESaIS3_EE21_M_get_Node_allocatorEv,comdat
	.align 2
	.weak	_ZNSt8_Rb_treeISt4pairIxxES0_IKS1_xESt10_Select1stIS3_ESt4lessIS1_ESaIS3_EE21_M_get_Node_allocatorEv
	.type	_ZNSt8_Rb_treeISt4pairIxxES0_IKS1_xESt10_Select1stIS3_ESt4lessIS1_ESaIS3_EE21_M_get_Node_allocatorEv, @function
_ZNSt8_Rb_treeISt4pairIxxES0_IKS1_xESt10_Select1stIS3_ESt4lessIS1_ESaIS3_EE21_M_get_Node_allocatorEv:
.LFB9583:
	.cfi_startproc
	endbr64
	pushq	%rbp
	.cfi_def_cfa_offset 16
	.cfi_offset 6, -16
	movq	%rsp, %rbp
	.cfi_def_cfa_register 6
	movq	%rdi, -8(%rbp)
	movq	-8(%rbp), %rax
	popq	%rbp
	.cfi_def_cfa 7, 8
	ret
	.cfi_endproc
.LFE9583:
	.size	_ZNSt8_Rb_treeISt4pairIxxES0_IKS1_xESt10_Select1stIS3_ESt4lessIS1_ESaIS3_EE21_M_get_Node_allocatorEv, .-_ZNSt8_Rb_treeISt4pairIxxES0_IKS1_xESt10_Select1stIS3_ESt4lessIS1_ESaIS3_EE21_M_get_Node_allocatorEv
	.section	.text._ZNSt16allocator_traitsISaISt13_Rb_tree_nodeISt4pairIKS1_IxxExEEEE7destroyIS4_EEvRS6_PT_,"axG",@progbits,_ZNSt16allocator_traitsISaISt13_Rb_tree_nodeISt4pairIKS1_IxxExEEEE7destroyIS4_EEvRS6_PT_,comdat
	.weak	_ZNSt16allocator_traitsISaISt13_Rb_tree_nodeISt4pairIKS1_IxxExEEEE7destroyIS4_EEvRS6_PT_
	.type	_ZNSt16allocator_traitsISaISt13_Rb_tree_nodeISt4pairIKS1_IxxExEEEE7destroyIS4_EEvRS6_PT_, @function
_ZNSt16allocator_traitsISaISt13_Rb_tree_nodeISt4pairIKS1_IxxExEEEE7destroyIS4_EEvRS6_PT_:
.LFB9584:
	.cfi_startproc
	endbr64
	pushq	%rbp
	.cfi_def_cfa_offset 16
	.cfi_offset 6, -16
	movq	%rsp, %rbp
	.cfi_def_cfa_register 6
	subq	$16, %rsp
	movq	%rdi, -8(%rbp)
	movq	%rsi, -16(%rbp)
	movq	-16(%rbp), %rdx
	movq	-8(%rbp), %rax
	movq	%rdx, %rsi
	movq	%rax, %rdi
	call	_ZN9__gnu_cxx13new_allocatorISt13_Rb_tree_nodeISt4pairIKS2_IxxExEEE7destroyIS5_EEvPT_
	nop
	leave
	.cfi_def_cfa 7, 8
	ret
	.cfi_endproc
.LFE9584:
	.size	_ZNSt16allocator_traitsISaISt13_Rb_tree_nodeISt4pairIKS1_IxxExEEEE7destroyIS4_EEvRS6_PT_, .-_ZNSt16allocator_traitsISaISt13_Rb_tree_nodeISt4pairIKS1_IxxExEEEE7destroyIS4_EEvRS6_PT_
	.section	.text._ZNSt16allocator_traitsISaISt13_Rb_tree_nodeISt4pairIKS1_IxxExEEEE10deallocateERS6_PS5_m,"axG",@progbits,_ZNSt16allocator_traitsISaISt13_Rb_tree_nodeISt4pairIKS1_IxxExEEEE10deallocateERS6_PS5_m,comdat
	.weak	_ZNSt16allocator_traitsISaISt13_Rb_tree_nodeISt4pairIKS1_IxxExEEEE10deallocateERS6_PS5_m
	.type	_ZNSt16allocator_traitsISaISt13_Rb_tree_nodeISt4pairIKS1_IxxExEEEE10deallocateERS6_PS5_m, @function
_ZNSt16allocator_traitsISaISt13_Rb_tree_nodeISt4pairIKS1_IxxExEEEE10deallocateERS6_PS5_m:
.LFB9585:
	.cfi_startproc
	endbr64
	pushq	%rbp
	.cfi_def_cfa_offset 16
	.cfi_offset 6, -16
	movq	%rsp, %rbp
	.cfi_def_cfa_register 6
	subq	$32, %rsp
	movq	%rdi, -8(%rbp)
	movq	%rsi, -16(%rbp)
	movq	%rdx, -24(%rbp)
	movq	-24(%rbp), %rdx
	movq	-16(%rbp), %rcx
	movq	-8(%rbp), %rax
	movq	%rcx, %rsi
	movq	%rax, %rdi
	call	_ZN9__gnu_cxx13new_allocatorISt13_Rb_tree_nodeISt4pairIKS2_IxxExEEE10deallocateEPS6_m
	nop
	leave
	.cfi_def_cfa 7, 8
	ret
	.cfi_endproc
.LFE9585:
	.size	_ZNSt16allocator_traitsISaISt13_Rb_tree_nodeISt4pairIKS1_IxxExEEEE10deallocateERS6_PS5_m, .-_ZNSt16allocator_traitsISaISt13_Rb_tree_nodeISt4pairIKS1_IxxExEEEE10deallocateERS6_PS5_m
	.section	.text._ZN9__gnu_cxx16__aligned_membufISt4pairIKS1_IxxExEE7_M_addrEv,"axG",@progbits,_ZN9__gnu_cxx16__aligned_membufISt4pairIKS1_IxxExEE7_M_addrEv,comdat
	.align 2
	.weak	_ZN9__gnu_cxx16__aligned_membufISt4pairIKS1_IxxExEE7_M_addrEv
	.type	_ZN9__gnu_cxx16__aligned_membufISt4pairIKS1_IxxExEE7_M_addrEv, @function
_ZN9__gnu_cxx16__aligned_membufISt4pairIKS1_IxxExEE7_M_addrEv:
.LFB9586:
	.cfi_startproc
	endbr64
	pushq	%rbp
	.cfi_def_cfa_offset 16
	.cfi_offset 6, -16
	movq	%rsp, %rbp
	.cfi_def_cfa_register 6
	movq	%rdi, -8(%rbp)
	movq	-8(%rbp), %rax
	popq	%rbp
	.cfi_def_cfa 7, 8
	ret
	.cfi_endproc
.LFE9586:
	.size	_ZN9__gnu_cxx16__aligned_membufISt4pairIKS1_IxxExEE7_M_addrEv, .-_ZN9__gnu_cxx16__aligned_membufISt4pairIKS1_IxxExEE7_M_addrEv
	.section	.text._ZNSt10_Head_baseILm0EOSt4pairIxxELb0EE7_M_headERS3_,"axG",@progbits,_ZNSt10_Head_baseILm0EOSt4pairIxxELb0EE7_M_headERS3_,comdat
	.weak	_ZNSt10_Head_baseILm0EOSt4pairIxxELb0EE7_M_headERS3_
	.type	_ZNSt10_Head_baseILm0EOSt4pairIxxELb0EE7_M_headERS3_, @function
_ZNSt10_Head_baseILm0EOSt4pairIxxELb0EE7_M_headERS3_:
.LFB9587:
	.cfi_startproc
	endbr64
	pushq	%rbp
	.cfi_def_cfa_offset 16
	.cfi_offset 6, -16
	movq	%rsp, %rbp
	.cfi_def_cfa_register 6
	movq	%rdi, -8(%rbp)
	movq	-8(%rbp), %rax
	movq	(%rax), %rax
	popq	%rbp
	.cfi_def_cfa 7, 8
	ret
	.cfi_endproc
.LFE9587:
	.size	_ZNSt10_Head_baseILm0EOSt4pairIxxELb0EE7_M_headERS3_, .-_ZNSt10_Head_baseILm0EOSt4pairIxxELb0EE7_M_headERS3_
	.section	.text._ZNSt16allocator_traitsISaISt13_Rb_tree_nodeISt4pairIKS1_IxxExEEEE8allocateERS6_m,"axG",@progbits,_ZNSt16allocator_traitsISaISt13_Rb_tree_nodeISt4pairIKS1_IxxExEEEE8allocateERS6_m,comdat
	.weak	_ZNSt16allocator_traitsISaISt13_Rb_tree_nodeISt4pairIKS1_IxxExEEEE8allocateERS6_m
	.type	_ZNSt16allocator_traitsISaISt13_Rb_tree_nodeISt4pairIKS1_IxxExEEEE8allocateERS6_m, @function
_ZNSt16allocator_traitsISaISt13_Rb_tree_nodeISt4pairIKS1_IxxExEEEE8allocateERS6_m:
.LFB9588:
	.cfi_startproc
	endbr64
	pushq	%rbp
	.cfi_def_cfa_offset 16
	.cfi_offset 6, -16
	movq	%rsp, %rbp
	.cfi_def_cfa_register 6
	subq	$16, %rsp
	movq	%rdi, -8(%rbp)
	movq	%rsi, -16(%rbp)
	movq	-16(%rbp), %rcx
	movq	-8(%rbp), %rax
	movl	$0, %edx
	movq	%rcx, %rsi
	movq	%rax, %rdi
	call	_ZN9__gnu_cxx13new_allocatorISt13_Rb_tree_nodeISt4pairIKS2_IxxExEEE8allocateEmPKv
	leave
	.cfi_def_cfa 7, 8
	ret
	.cfi_endproc
.LFE9588:
	.size	_ZNSt16allocator_traitsISaISt13_Rb_tree_nodeISt4pairIKS1_IxxExEEEE8allocateERS6_m, .-_ZNSt16allocator_traitsISaISt13_Rb_tree_nodeISt4pairIKS1_IxxExEEEE8allocateERS6_m
	.section	.text._ZNSt16allocator_traitsISaISt13_Rb_tree_nodeISt4pairIKS1_IxxExEEEE9constructIS4_JRKSt21piecewise_construct_tSt5tupleIJOS2_EESC_IJEEEEEvRS6_PT_DpOT0_,"axG",@progbits,_ZNSt16allocator_traitsISaISt13_Rb_tree_nodeISt4pairIKS1_IxxExEEEE9constructIS4_JRKSt21piecewise_construct_tSt5tupleIJOS2_EESC_IJEEEEEvRS6_PT_DpOT0_,comdat
	.weak	_ZNSt16allocator_traitsISaISt13_Rb_tree_nodeISt4pairIKS1_IxxExEEEE9constructIS4_JRKSt21piecewise_construct_tSt5tupleIJOS2_EESC_IJEEEEEvRS6_PT_DpOT0_
	.type	_ZNSt16allocator_traitsISaISt13_Rb_tree_nodeISt4pairIKS1_IxxExEEEE9constructIS4_JRKSt21piecewise_construct_tSt5tupleIJOS2_EESC_IJEEEEEvRS6_PT_DpOT0_, @function
_ZNSt16allocator_traitsISaISt13_Rb_tree_nodeISt4pairIKS1_IxxExEEEE9constructIS4_JRKSt21piecewise_construct_tSt5tupleIJOS2_EESC_IJEEEEEvRS6_PT_DpOT0_:
.LFB9589:
	.cfi_startproc
	endbr64
	pushq	%rbp
	.cfi_def_cfa_offset 16
	.cfi_offset 6, -16
	movq	%rsp, %rbp
	.cfi_def_cfa_register 6
	pushq	%r12
	pushq	%rbx
	subq	$48, %rsp
	.cfi_offset 12, -24
	.cfi_offset 3, -32
	movq	%rdi, -24(%rbp)
	movq	%rsi, -32(%rbp)
	movq	%rdx, -40(%rbp)
	movq	%rcx, -48(%rbp)
	movq	%r8, -56(%rbp)
	movq	-56(%rbp), %rax
	movq	%rax, %rdi
	call	_ZSt7forwardISt5tupleIJEEEOT_RNSt16remove_referenceIS2_E4typeE
	movq	%rax, %r12
	movq	-48(%rbp), %rax
	movq	%rax, %rdi
	call	_ZSt7forwardISt5tupleIJOSt4pairIxxEEEEOT_RNSt16remove_referenceIS5_E4typeE
	movq	%rax, %rbx
	movq	-40(%rbp), %rax
	movq	%rax, %rdi
	call	_ZSt7forwardIRKSt21piecewise_construct_tEOT_RNSt16remove_referenceIS3_E4typeE
	movq	%rax, %rdx
	movq	-32(%rbp), %rsi
	movq	-24(%rbp), %rax
	movq	%r12, %r8
	movq	%rbx, %rcx
	movq	%rax, %rdi
	call	_ZN9__gnu_cxx13new_allocatorISt13_Rb_tree_nodeISt4pairIKS2_IxxExEEE9constructIS5_JRKSt21piecewise_construct_tSt5tupleIJOS3_EESC_IJEEEEEvPT_DpOT0_
	nop
	addq	$48, %rsp
	popq	%rbx
	popq	%r12
	popq	%rbp
	.cfi_def_cfa 7, 8
	ret
	.cfi_endproc
.LFE9589:
	.size	_ZNSt16allocator_traitsISaISt13_Rb_tree_nodeISt4pairIKS1_IxxExEEEE9constructIS4_JRKSt21piecewise_construct_tSt5tupleIJOS2_EESC_IJEEEEEvRS6_PT_DpOT0_, .-_ZNSt16allocator_traitsISaISt13_Rb_tree_nodeISt4pairIKS1_IxxExEEEE9constructIS4_JRKSt21piecewise_construct_tSt5tupleIJOS2_EESC_IJEEEEEvRS6_PT_DpOT0_
	.section	.text._ZSt7forwardIRPSt18_Rb_tree_node_baseEOT_RNSt16remove_referenceIS3_E4typeE,"axG",@progbits,_ZSt7forwardIRPSt18_Rb_tree_node_baseEOT_RNSt16remove_referenceIS3_E4typeE,comdat
	.weak	_ZSt7forwardIRPSt18_Rb_tree_node_baseEOT_RNSt16remove_referenceIS3_E4typeE
	.type	_ZSt7forwardIRPSt18_Rb_tree_node_baseEOT_RNSt16remove_referenceIS3_E4typeE, @function
_ZSt7forwardIRPSt18_Rb_tree_node_baseEOT_RNSt16remove_referenceIS3_E4typeE:
.LFB9590:
	.cfi_startproc
	endbr64
	pushq	%rbp
	.cfi_def_cfa_offset 16
	.cfi_offset 6, -16
	movq	%rsp, %rbp
	.cfi_def_cfa_register 6
	movq	%rdi, -8(%rbp)
	movq	-8(%rbp), %rax
	popq	%rbp
	.cfi_def_cfa 7, 8
	ret
	.cfi_endproc
.LFE9590:
	.size	_ZSt7forwardIRPSt18_Rb_tree_node_baseEOT_RNSt16remove_referenceIS3_E4typeE, .-_ZSt7forwardIRPSt18_Rb_tree_node_baseEOT_RNSt16remove_referenceIS3_E4typeE
	.section	.text._ZNSt8_Rb_treeISt4pairIxxES0_IKS1_xESt10_Select1stIS3_ESt4lessIS1_ESaIS3_EE5beginEv,"axG",@progbits,_ZNSt8_Rb_treeISt4pairIxxES0_IKS1_xESt10_Select1stIS3_ESt4lessIS1_ESaIS3_EE5beginEv,comdat
	.align 2
	.weak	_ZNSt8_Rb_treeISt4pairIxxES0_IKS1_xESt10_Select1stIS3_ESt4lessIS1_ESaIS3_EE5beginEv
	.type	_ZNSt8_Rb_treeISt4pairIxxES0_IKS1_xESt10_Select1stIS3_ESt4lessIS1_ESaIS3_EE5beginEv, @function
_ZNSt8_Rb_treeISt4pairIxxES0_IKS1_xESt10_Select1stIS3_ESt4lessIS1_ESaIS3_EE5beginEv:
.LFB9591:
	.cfi_startproc
	endbr64
	pushq	%rbp
	.cfi_def_cfa_offset 16
	.cfi_offset 6, -16
	movq	%rsp, %rbp
	.cfi_def_cfa_register 6
	subq	$32, %rsp
	movq	%rdi, -24(%rbp)
	movq	%fs:40, %rax
	movq	%rax, -8(%rbp)
	xorl	%eax, %eax
	movq	-24(%rbp), %rax
	movq	24(%rax), %rdx
	leaq	-16(%rbp), %rax
	movq	%rdx, %rsi
	movq	%rax, %rdi
	call	_ZNSt17_Rb_tree_iteratorISt4pairIKS0_IxxExEEC1EPSt18_Rb_tree_node_base
	movq	-16(%rbp), %rax
	movq	-8(%rbp), %rcx
	xorq	%fs:40, %rcx
	je	.L224
	call	__stack_chk_fail@PLT
.L224:
	leave
	.cfi_def_cfa 7, 8
	ret
	.cfi_endproc
.LFE9591:
	.size	_ZNSt8_Rb_treeISt4pairIxxES0_IKS1_xESt10_Select1stIS3_ESt4lessIS1_ESaIS3_EE5beginEv, .-_ZNSt8_Rb_treeISt4pairIxxES0_IKS1_xESt10_Select1stIS3_ESt4lessIS1_ESaIS3_EE5beginEv
	.section	.text._ZNSt4pairIPSt18_Rb_tree_node_baseS1_EC2IRPSt13_Rb_tree_nodeIS_IKS_IxxExEERS1_Lb1EEEOT_OT0_,"axG",@progbits,_ZNSt4pairIPSt18_Rb_tree_node_baseS1_EC5IRPSt13_Rb_tree_nodeIS_IKS_IxxExEERS1_Lb1EEEOT_OT0_,comdat
	.align 2
	.weak	_ZNSt4pairIPSt18_Rb_tree_node_baseS1_EC2IRPSt13_Rb_tree_nodeIS_IKS_IxxExEERS1_Lb1EEEOT_OT0_
	.type	_ZNSt4pairIPSt18_Rb_tree_node_baseS1_EC2IRPSt13_Rb_tree_nodeIS_IKS_IxxExEERS1_Lb1EEEOT_OT0_, @function
_ZNSt4pairIPSt18_Rb_tree_node_baseS1_EC2IRPSt13_Rb_tree_nodeIS_IKS_IxxExEERS1_Lb1EEEOT_OT0_:
.LFB9593:
	.cfi_startproc
	endbr64
	pushq	%rbp
	.cfi_def_cfa_offset 16
	.cfi_offset 6, -16
	movq	%rsp, %rbp
	.cfi_def_cfa_register 6
	subq	$32, %rsp
	movq	%rdi, -8(%rbp)
	movq	%rsi, -16(%rbp)
	movq	%rdx, -24(%rbp)
	movq	-16(%rbp), %rax
	movq	%rax, %rdi
	call	_ZSt7forwardIRPSt13_Rb_tree_nodeISt4pairIKS1_IxxExEEEOT_RNSt16remove_referenceIS8_E4typeE
	movq	(%rax), %rdx
	movq	-8(%rbp), %rax
	movq	%rdx, (%rax)
	movq	-24(%rbp), %rax
	movq	%rax, %rdi
	call	_ZSt7forwardIRPSt18_Rb_tree_node_baseEOT_RNSt16remove_referenceIS3_E4typeE
	movq	(%rax), %rdx
	movq	-8(%rbp), %rax
	movq	%rdx, 8(%rax)
	nop
	leave
	.cfi_def_cfa 7, 8
	ret
	.cfi_endproc
.LFE9593:
	.size	_ZNSt4pairIPSt18_Rb_tree_node_baseS1_EC2IRPSt13_Rb_tree_nodeIS_IKS_IxxExEERS1_Lb1EEEOT_OT0_, .-_ZNSt4pairIPSt18_Rb_tree_node_baseS1_EC2IRPSt13_Rb_tree_nodeIS_IKS_IxxExEERS1_Lb1EEEOT_OT0_
	.weak	_ZNSt4pairIPSt18_Rb_tree_node_baseS1_EC1IRPSt13_Rb_tree_nodeIS_IKS_IxxExEERS1_Lb1EEEOT_OT0_
	.set	_ZNSt4pairIPSt18_Rb_tree_node_baseS1_EC1IRPSt13_Rb_tree_nodeIS_IKS_IxxExEERS1_Lb1EEEOT_OT0_,_ZNSt4pairIPSt18_Rb_tree_node_baseS1_EC2IRPSt13_Rb_tree_nodeIS_IKS_IxxExEERS1_Lb1EEEOT_OT0_
	.section	.text._ZNK9__gnu_cxx16__aligned_membufISt4pairIKS1_IxxExEE6_M_ptrEv,"axG",@progbits,_ZNK9__gnu_cxx16__aligned_membufISt4pairIKS1_IxxExEE6_M_ptrEv,comdat
	.align 2
	.weak	_ZNK9__gnu_cxx16__aligned_membufISt4pairIKS1_IxxExEE6_M_ptrEv
	.type	_ZNK9__gnu_cxx16__aligned_membufISt4pairIKS1_IxxExEE6_M_ptrEv, @function
_ZNK9__gnu_cxx16__aligned_membufISt4pairIKS1_IxxExEE6_M_ptrEv:
.LFB9595:
	.cfi_startproc
	endbr64
	pushq	%rbp
	.cfi_def_cfa_offset 16
	.cfi_offset 6, -16
	movq	%rsp, %rbp
	.cfi_def_cfa_register 6
	subq	$16, %rsp
	movq	%rdi, -8(%rbp)
	movq	-8(%rbp), %rax
	movq	%rax, %rdi
	call	_ZNK9__gnu_cxx16__aligned_membufISt4pairIKS1_IxxExEE7_M_addrEv
	leave
	.cfi_def_cfa 7, 8
	ret
	.cfi_endproc
.LFE9595:
	.size	_ZNK9__gnu_cxx16__aligned_membufISt4pairIKS1_IxxExEE6_M_ptrEv, .-_ZNK9__gnu_cxx16__aligned_membufISt4pairIKS1_IxxExEE6_M_ptrEv
	.section	.text._ZN9__gnu_cxx13new_allocatorISt13_Rb_tree_nodeISt4pairIKS2_IxxExEEE7destroyIS5_EEvPT_,"axG",@progbits,_ZN9__gnu_cxx13new_allocatorISt13_Rb_tree_nodeISt4pairIKS2_IxxExEEE7destroyIS5_EEvPT_,comdat
	.align 2
	.weak	_ZN9__gnu_cxx13new_allocatorISt13_Rb_tree_nodeISt4pairIKS2_IxxExEEE7destroyIS5_EEvPT_
	.type	_ZN9__gnu_cxx13new_allocatorISt13_Rb_tree_nodeISt4pairIKS2_IxxExEEE7destroyIS5_EEvPT_, @function
_ZN9__gnu_cxx13new_allocatorISt13_Rb_tree_nodeISt4pairIKS2_IxxExEEE7destroyIS5_EEvPT_:
.LFB9693:
	.cfi_startproc
	endbr64
	pushq	%rbp
	.cfi_def_cfa_offset 16
	.cfi_offset 6, -16
	movq	%rsp, %rbp
	.cfi_def_cfa_register 6
	movq	%rdi, -8(%rbp)
	movq	%rsi, -16(%rbp)
	nop
	popq	%rbp
	.cfi_def_cfa 7, 8
	ret
	.cfi_endproc
.LFE9693:
	.size	_ZN9__gnu_cxx13new_allocatorISt13_Rb_tree_nodeISt4pairIKS2_IxxExEEE7destroyIS5_EEvPT_, .-_ZN9__gnu_cxx13new_allocatorISt13_Rb_tree_nodeISt4pairIKS2_IxxExEEE7destroyIS5_EEvPT_
	.section	.text._ZN9__gnu_cxx13new_allocatorISt13_Rb_tree_nodeISt4pairIKS2_IxxExEEE10deallocateEPS6_m,"axG",@progbits,_ZN9__gnu_cxx13new_allocatorISt13_Rb_tree_nodeISt4pairIKS2_IxxExEEE10deallocateEPS6_m,comdat
	.align 2
	.weak	_ZN9__gnu_cxx13new_allocatorISt13_Rb_tree_nodeISt4pairIKS2_IxxExEEE10deallocateEPS6_m
	.type	_ZN9__gnu_cxx13new_allocatorISt13_Rb_tree_nodeISt4pairIKS2_IxxExEEE10deallocateEPS6_m, @function
_ZN9__gnu_cxx13new_allocatorISt13_Rb_tree_nodeISt4pairIKS2_IxxExEEE10deallocateEPS6_m:
.LFB9694:
	.cfi_startproc
	endbr64
	pushq	%rbp
	.cfi_def_cfa_offset 16
	.cfi_offset 6, -16
	movq	%rsp, %rbp
	.cfi_def_cfa_register 6
	subq	$32, %rsp
	movq	%rdi, -8(%rbp)
	movq	%rsi, -16(%rbp)
	movq	%rdx, -24(%rbp)
	movq	-16(%rbp), %rax
	movq	%rax, %rdi
	call	_ZdlPv@PLT
	nop
	leave
	.cfi_def_cfa 7, 8
	ret
	.cfi_endproc
.LFE9694:
	.size	_ZN9__gnu_cxx13new_allocatorISt13_Rb_tree_nodeISt4pairIKS2_IxxExEEE10deallocateEPS6_m, .-_ZN9__gnu_cxx13new_allocatorISt13_Rb_tree_nodeISt4pairIKS2_IxxExEEE10deallocateEPS6_m
	.section	.text._ZN9__gnu_cxx13new_allocatorISt13_Rb_tree_nodeISt4pairIKS2_IxxExEEE8allocateEmPKv,"axG",@progbits,_ZN9__gnu_cxx13new_allocatorISt13_Rb_tree_nodeISt4pairIKS2_IxxExEEE8allocateEmPKv,comdat
	.align 2
	.weak	_ZN9__gnu_cxx13new_allocatorISt13_Rb_tree_nodeISt4pairIKS2_IxxExEEE8allocateEmPKv
	.type	_ZN9__gnu_cxx13new_allocatorISt13_Rb_tree_nodeISt4pairIKS2_IxxExEEE8allocateEmPKv, @function
_ZN9__gnu_cxx13new_allocatorISt13_Rb_tree_nodeISt4pairIKS2_IxxExEEE8allocateEmPKv:
.LFB9695:
	.cfi_startproc
	endbr64
	pushq	%rbp
	.cfi_def_cfa_offset 16
	.cfi_offset 6, -16
	movq	%rsp, %rbp
	.cfi_def_cfa_register 6
	subq	$32, %rsp
	movq	%rdi, -8(%rbp)
	movq	%rsi, -16(%rbp)
	movq	%rdx, -24(%rbp)
	movq	-8(%rbp), %rax
	movq	%rax, %rdi
	call	_ZNK9__gnu_cxx13new_allocatorISt13_Rb_tree_nodeISt4pairIKS2_IxxExEEE8max_sizeEv
	cmpq	%rax, -16(%rbp)
	seta	%al
	testb	%al, %al
	je	.L231
	call	_ZSt17__throw_bad_allocv@PLT
.L231:
	movq	-16(%rbp), %rdx
	movq	%rdx, %rax
	salq	$3, %rax
	subq	%rdx, %rax
	salq	$3, %rax
	movq	%rax, %rdi
	call	_Znwm@PLT
	leave
	.cfi_def_cfa 7, 8
	ret
	.cfi_endproc
.LFE9695:
	.size	_ZN9__gnu_cxx13new_allocatorISt13_Rb_tree_nodeISt4pairIKS2_IxxExEEE8allocateEmPKv, .-_ZN9__gnu_cxx13new_allocatorISt13_Rb_tree_nodeISt4pairIKS2_IxxExEEE8allocateEmPKv
	.section	.text._ZN9__gnu_cxx13new_allocatorISt13_Rb_tree_nodeISt4pairIKS2_IxxExEEE9constructIS5_JRKSt21piecewise_construct_tSt5tupleIJOS3_EESC_IJEEEEEvPT_DpOT0_,"axG",@progbits,_ZN9__gnu_cxx13new_allocatorISt13_Rb_tree_nodeISt4pairIKS2_IxxExEEE9constructIS5_JRKSt21piecewise_construct_tSt5tupleIJOS3_EESC_IJEEEEEvPT_DpOT0_,comdat
	.align 2
	.weak	_ZN9__gnu_cxx13new_allocatorISt13_Rb_tree_nodeISt4pairIKS2_IxxExEEE9constructIS5_JRKSt21piecewise_construct_tSt5tupleIJOS3_EESC_IJEEEEEvPT_DpOT0_
	.type	_ZN9__gnu_cxx13new_allocatorISt13_Rb_tree_nodeISt4pairIKS2_IxxExEEE9constructIS5_JRKSt21piecewise_construct_tSt5tupleIJOS3_EESC_IJEEEEEvPT_DpOT0_, @function
_ZN9__gnu_cxx13new_allocatorISt13_Rb_tree_nodeISt4pairIKS2_IxxExEEE9constructIS5_JRKSt21piecewise_construct_tSt5tupleIJOS3_EESC_IJEEEEEvPT_DpOT0_:
.LFB9696:
	.cfi_startproc
	.cfi_personality 0x9b,DW.ref.__gxx_personality_v0
	.cfi_lsda 0x1b,.LLSDA9696
	endbr64
	pushq	%rbp
	.cfi_def_cfa_offset 16
	.cfi_offset 6, -16
	movq	%rsp, %rbp
	.cfi_def_cfa_register 6
	pushq	%r13
	pushq	%r12
	pushq	%rbx
	subq	$88, %rsp
	.cfi_offset 13, -24
	.cfi_offset 12, -32
	.cfi_offset 3, -40
	movq	%rdi, -72(%rbp)
	movq	%rsi, -80(%rbp)
	movq	%rdx, -88(%rbp)
	movq	%rcx, -96(%rbp)
	movq	%r8, -104(%rbp)
	movq	%fs:40, %rax
	movq	%rax, -40(%rbp)
	xorl	%eax, %eax
	movq	-88(%rbp), %rax
	movq	%rax, %rdi
	call	_ZSt7forwardIRKSt21piecewise_construct_tEOT_RNSt16remove_referenceIS3_E4typeE
	movq	-96(%rbp), %rax
	movq	%rax, %rdi
	call	_ZSt7forwardISt5tupleIJOSt4pairIxxEEEEOT_RNSt16remove_referenceIS5_E4typeE
	movq	%rax, %rdx
	leaq	-48(%rbp), %rax
	movq	%rdx, %rsi
	movq	%rax, %rdi
	call	_ZNSt5tupleIJOSt4pairIxxEEEC1EOS3_
	leaq	-48(%rbp), %r13
	movq	-104(%rbp), %rax
	movq	%rax, %rdi
	call	_ZSt7forwardISt5tupleIJEEEOT_RNSt16remove_referenceIS2_E4typeE
	movq	-80(%rbp), %rbx
	movq	%rbx, %rsi
	movl	$24, %edi
	call	_ZnwmPv
	movq	%rax, %r12
	movq	%r13, %rsi
	movq	%r12, %rdi
.LEHB10:
	call	_ZNSt4pairIKS_IxxExEC1IJOS0_EJEEESt21piecewise_construct_tSt5tupleIJDpT_EES6_IJDpT0_EE
.LEHE10:
	jmp	.L237
.L236:
	endbr64
	movq	%rax, %r13
	movq	%rbx, %rsi
	movq	%r12, %rdi
	call	_ZdlPvS_
	movq	%r13, %rax
	movq	%rax, %rdi
.LEHB11:
	call	_Unwind_Resume@PLT
.LEHE11:
.L237:
	movq	-40(%rbp), %rax
	xorq	%fs:40, %rax
	je	.L235
	call	__stack_chk_fail@PLT
.L235:
	addq	$88, %rsp
	popq	%rbx
	popq	%r12
	popq	%r13
	popq	%rbp
	.cfi_def_cfa 7, 8
	ret
	.cfi_endproc
.LFE9696:
	.section	.gcc_except_table._ZN9__gnu_cxx13new_allocatorISt13_Rb_tree_nodeISt4pairIKS2_IxxExEEE9constructIS5_JRKSt21piecewise_construct_tSt5tupleIJOS3_EESC_IJEEEEEvPT_DpOT0_,"aG",@progbits,_ZN9__gnu_cxx13new_allocatorISt13_Rb_tree_nodeISt4pairIKS2_IxxExEEE9constructIS5_JRKSt21piecewise_construct_tSt5tupleIJOS3_EESC_IJEEEEEvPT_DpOT0_,comdat
.LLSDA9696:
	.byte	0xff
	.byte	0xff
	.byte	0x1
	.uleb128 .LLSDACSE9696-.LLSDACSB9696
.LLSDACSB9696:
	.uleb128 .LEHB10-.LFB9696
	.uleb128 .LEHE10-.LEHB10
	.uleb128 .L236-.LFB9696
	.uleb128 0
	.uleb128 .LEHB11-.LFB9696
	.uleb128 .LEHE11-.LEHB11
	.uleb128 0
	.uleb128 0
.LLSDACSE9696:
	.section	.text._ZN9__gnu_cxx13new_allocatorISt13_Rb_tree_nodeISt4pairIKS2_IxxExEEE9constructIS5_JRKSt21piecewise_construct_tSt5tupleIJOS3_EESC_IJEEEEEvPT_DpOT0_,"axG",@progbits,_ZN9__gnu_cxx13new_allocatorISt13_Rb_tree_nodeISt4pairIKS2_IxxExEEE9constructIS5_JRKSt21piecewise_construct_tSt5tupleIJOS3_EESC_IJEEEEEvPT_DpOT0_,comdat
	.size	_ZN9__gnu_cxx13new_allocatorISt13_Rb_tree_nodeISt4pairIKS2_IxxExEEE9constructIS5_JRKSt21piecewise_construct_tSt5tupleIJOS3_EESC_IJEEEEEvPT_DpOT0_, .-_ZN9__gnu_cxx13new_allocatorISt13_Rb_tree_nodeISt4pairIKS2_IxxExEEE9constructIS5_JRKSt21piecewise_construct_tSt5tupleIJOS3_EESC_IJEEEEEvPT_DpOT0_
	.section	.text._ZSt7forwardIRPSt13_Rb_tree_nodeISt4pairIKS1_IxxExEEEOT_RNSt16remove_referenceIS8_E4typeE,"axG",@progbits,_ZSt7forwardIRPSt13_Rb_tree_nodeISt4pairIKS1_IxxExEEEOT_RNSt16remove_referenceIS8_E4typeE,comdat
	.weak	_ZSt7forwardIRPSt13_Rb_tree_nodeISt4pairIKS1_IxxExEEEOT_RNSt16remove_referenceIS8_E4typeE
	.type	_ZSt7forwardIRPSt13_Rb_tree_nodeISt4pairIKS1_IxxExEEEOT_RNSt16remove_referenceIS8_E4typeE, @function
_ZSt7forwardIRPSt13_Rb_tree_nodeISt4pairIKS1_IxxExEEEOT_RNSt16remove_referenceIS8_E4typeE:
.LFB9697:
	.cfi_startproc
	endbr64
	pushq	%rbp
	.cfi_def_cfa_offset 16
	.cfi_offset 6, -16
	movq	%rsp, %rbp
	.cfi_def_cfa_register 6
	movq	%rdi, -8(%rbp)
	movq	-8(%rbp), %rax
	popq	%rbp
	.cfi_def_cfa 7, 8
	ret
	.cfi_endproc
.LFE9697:
	.size	_ZSt7forwardIRPSt13_Rb_tree_nodeISt4pairIKS1_IxxExEEEOT_RNSt16remove_referenceIS8_E4typeE, .-_ZSt7forwardIRPSt13_Rb_tree_nodeISt4pairIKS1_IxxExEEEOT_RNSt16remove_referenceIS8_E4typeE
	.section	.text._ZNK9__gnu_cxx16__aligned_membufISt4pairIKS1_IxxExEE7_M_addrEv,"axG",@progbits,_ZNK9__gnu_cxx16__aligned_membufISt4pairIKS1_IxxExEE7_M_addrEv,comdat
	.align 2
	.weak	_ZNK9__gnu_cxx16__aligned_membufISt4pairIKS1_IxxExEE7_M_addrEv
	.type	_ZNK9__gnu_cxx16__aligned_membufISt4pairIKS1_IxxExEE7_M_addrEv, @function
_ZNK9__gnu_cxx16__aligned_membufISt4pairIKS1_IxxExEE7_M_addrEv:
.LFB9698:
	.cfi_startproc
	endbr64
	pushq	%rbp
	.cfi_def_cfa_offset 16
	.cfi_offset 6, -16
	movq	%rsp, %rbp
	.cfi_def_cfa_register 6
	movq	%rdi, -8(%rbp)
	movq	-8(%rbp), %rax
	popq	%rbp
	.cfi_def_cfa 7, 8
	ret
	.cfi_endproc
.LFE9698:
	.size	_ZNK9__gnu_cxx16__aligned_membufISt4pairIKS1_IxxExEE7_M_addrEv, .-_ZNK9__gnu_cxx16__aligned_membufISt4pairIKS1_IxxExEE7_M_addrEv
	.section	.text._ZNK9__gnu_cxx13new_allocatorISt13_Rb_tree_nodeISt4pairIKS2_IxxExEEE8max_sizeEv,"axG",@progbits,_ZNK9__gnu_cxx13new_allocatorISt13_Rb_tree_nodeISt4pairIKS2_IxxExEEE8max_sizeEv,comdat
	.align 2
	.weak	_ZNK9__gnu_cxx13new_allocatorISt13_Rb_tree_nodeISt4pairIKS2_IxxExEEE8max_sizeEv
	.type	_ZNK9__gnu_cxx13new_allocatorISt13_Rb_tree_nodeISt4pairIKS2_IxxExEEE8max_sizeEv, @function
_ZNK9__gnu_cxx13new_allocatorISt13_Rb_tree_nodeISt4pairIKS2_IxxExEEE8max_sizeEv:
.LFB9757:
	.cfi_startproc
	endbr64
	pushq	%rbp
	.cfi_def_cfa_offset 16
	.cfi_offset 6, -16
	movq	%rsp, %rbp
	.cfi_def_cfa_register 6
	movq	%rdi, -8(%rbp)
	movabsq	$164703072086692425, %rax
	popq	%rbp
	.cfi_def_cfa 7, 8
	ret
	.cfi_endproc
.LFE9757:
	.size	_ZNK9__gnu_cxx13new_allocatorISt13_Rb_tree_nodeISt4pairIKS2_IxxExEEE8max_sizeEv, .-_ZNK9__gnu_cxx13new_allocatorISt13_Rb_tree_nodeISt4pairIKS2_IxxExEEE8max_sizeEv
	.section	.text._ZNSt4pairIKS_IxxExEC2IJOS0_EJEEESt21piecewise_construct_tSt5tupleIJDpT_EES6_IJDpT0_EE,"axG",@progbits,_ZNSt4pairIKS_IxxExEC5IJOS0_EJEEESt21piecewise_construct_tSt5tupleIJDpT_EES6_IJDpT0_EE,comdat
	.align 2
	.weak	_ZNSt4pairIKS_IxxExEC2IJOS0_EJEEESt21piecewise_construct_tSt5tupleIJDpT_EES6_IJDpT0_EE
	.type	_ZNSt4pairIKS_IxxExEC2IJOS0_EJEEESt21piecewise_construct_tSt5tupleIJDpT_EES6_IJDpT0_EE, @function
_ZNSt4pairIKS_IxxExEC2IJOS0_EJEEESt21piecewise_construct_tSt5tupleIJDpT_EES6_IJDpT0_EE:
.LFB9759:
	.cfi_startproc
	endbr64
	pushq	%rbp
	.cfi_def_cfa_offset 16
	.cfi_offset 6, -16
	movq	%rsp, %rbp
	.cfi_def_cfa_register 6
	subq	$48, %rsp
	movq	%rdi, -24(%rbp)
	movq	%rsi, -32(%rbp)
	movq	%fs:40, %rax
	movq	%rax, -8(%rbp)
	xorl	%eax, %eax
	leaq	-33(%rbp), %rdx
	movq	-32(%rbp), %rcx
	movq	-24(%rbp), %rax
	movq	%rcx, %rsi
	movq	%rax, %rdi
	call	_ZNSt4pairIKS_IxxExEC1IJOS0_EJLm0EEJEJEEERSt5tupleIJDpT_EERS5_IJDpT1_EESt12_Index_tupleIJXspT0_EEESE_IJXspT2_EEE
	nop
	movq	-8(%rbp), %rax
	xorq	%fs:40, %rax
	je	.L245
	call	__stack_chk_fail@PLT
.L245:
	leave
	.cfi_def_cfa 7, 8
	ret
	.cfi_endproc
.LFE9759:
	.size	_ZNSt4pairIKS_IxxExEC2IJOS0_EJEEESt21piecewise_construct_tSt5tupleIJDpT_EES6_IJDpT0_EE, .-_ZNSt4pairIKS_IxxExEC2IJOS0_EJEEESt21piecewise_construct_tSt5tupleIJDpT_EES6_IJDpT0_EE
	.weak	_ZNSt4pairIKS_IxxExEC1IJOS0_EJEEESt21piecewise_construct_tSt5tupleIJDpT_EES6_IJDpT0_EE
	.set	_ZNSt4pairIKS_IxxExEC1IJOS0_EJEEESt21piecewise_construct_tSt5tupleIJDpT_EES6_IJDpT0_EE,_ZNSt4pairIKS_IxxExEC2IJOS0_EJEEESt21piecewise_construct_tSt5tupleIJDpT_EES6_IJDpT0_EE
	.section	.text._ZNSt4pairIKS_IxxExEC2IJOS0_EJLm0EEJEJEEERSt5tupleIJDpT_EERS5_IJDpT1_EESt12_Index_tupleIJXspT0_EEESE_IJXspT2_EEE,"axG",@progbits,_ZNSt4pairIKS_IxxExEC5IJOS0_EJLm0EEJEJEEERSt5tupleIJDpT_EERS5_IJDpT1_EESt12_Index_tupleIJXspT0_EEESE_IJXspT2_EEE,comdat
	.align 2
	.weak	_ZNSt4pairIKS_IxxExEC2IJOS0_EJLm0EEJEJEEERSt5tupleIJDpT_EERS5_IJDpT1_EESt12_Index_tupleIJXspT0_EEESE_IJXspT2_EEE
	.type	_ZNSt4pairIKS_IxxExEC2IJOS0_EJLm0EEJEJEEERSt5tupleIJDpT_EERS5_IJDpT1_EESt12_Index_tupleIJXspT0_EEESE_IJXspT2_EEE, @function
_ZNSt4pairIKS_IxxExEC2IJOS0_EJLm0EEJEJEEERSt5tupleIJDpT_EERS5_IJDpT1_EESt12_Index_tupleIJXspT0_EEESE_IJXspT2_EEE:
.LFB9787:
	.cfi_startproc
	endbr64
	pushq	%rbp
	.cfi_def_cfa_offset 16
	.cfi_offset 6, -16
	movq	%rsp, %rbp
	.cfi_def_cfa_register 6
	subq	$32, %rsp
	movq	%rdi, -8(%rbp)
	movq	%rsi, -16(%rbp)
	movq	%rdx, -24(%rbp)
	movq	-16(%rbp), %rax
	movq	%rax, %rdi
	call	_ZSt3getILm0EJOSt4pairIxxEEERNSt13tuple_elementIXT_ESt5tupleIJDpT0_EEE4typeERS7_
	movq	%rax, %rdi
	call	_ZSt7forwardIOSt4pairIxxEEOT_RNSt16remove_referenceIS3_E4typeE
	movq	-8(%rbp), %rcx
	movq	8(%rax), %rdx
	movq	(%rax), %rax
	movq	%rax, (%rcx)
	movq	%rdx, 8(%rcx)
	movq	-8(%rbp), %rax
	movq	$0, 16(%rax)
	nop
	leave
	.cfi_def_cfa 7, 8
	ret
	.cfi_endproc
.LFE9787:
	.size	_ZNSt4pairIKS_IxxExEC2IJOS0_EJLm0EEJEJEEERSt5tupleIJDpT_EERS5_IJDpT1_EESt12_Index_tupleIJXspT0_EEESE_IJXspT2_EEE, .-_ZNSt4pairIKS_IxxExEC2IJOS0_EJLm0EEJEJEEERSt5tupleIJDpT_EERS5_IJDpT1_EESt12_Index_tupleIJXspT0_EEESE_IJXspT2_EEE
	.weak	_ZNSt4pairIKS_IxxExEC1IJOS0_EJLm0EEJEJEEERSt5tupleIJDpT_EERS5_IJDpT1_EESt12_Index_tupleIJXspT0_EEESE_IJXspT2_EEE
	.set	_ZNSt4pairIKS_IxxExEC1IJOS0_EJLm0EEJEJEEERSt5tupleIJDpT_EERS5_IJDpT1_EESt12_Index_tupleIJXspT0_EEESE_IJXspT2_EEE,_ZNSt4pairIKS_IxxExEC2IJOS0_EJLm0EEJEJEEERSt5tupleIJDpT_EERS5_IJDpT1_EESt12_Index_tupleIJXspT0_EEESE_IJXspT2_EEE
	.section	.text._ZSt3getILm0EJOSt4pairIxxEEERNSt13tuple_elementIXT_ESt5tupleIJDpT0_EEE4typeERS7_,"axG",@progbits,_ZSt3getILm0EJOSt4pairIxxEEERNSt13tuple_elementIXT_ESt5tupleIJDpT0_EEE4typeERS7_,comdat
	.weak	_ZSt3getILm0EJOSt4pairIxxEEERNSt13tuple_elementIXT_ESt5tupleIJDpT0_EEE4typeERS7_
	.type	_ZSt3getILm0EJOSt4pairIxxEEERNSt13tuple_elementIXT_ESt5tupleIJDpT0_EEE4typeERS7_, @function
_ZSt3getILm0EJOSt4pairIxxEEERNSt13tuple_elementIXT_ESt5tupleIJDpT0_EEE4typeERS7_:
.LFB9791:
	.cfi_startproc
	endbr64
	pushq	%rbp
	.cfi_def_cfa_offset 16
	.cfi_offset 6, -16
	movq	%rsp, %rbp
	.cfi_def_cfa_register 6
	subq	$16, %rsp
	movq	%rdi, -8(%rbp)
	movq	-8(%rbp), %rax
	movq	%rax, %rdi
	call	_ZSt12__get_helperILm0EOSt4pairIxxEJEERT0_RSt11_Tuple_implIXT_EJS3_DpT1_EE
	leave
	.cfi_def_cfa 7, 8
	ret
	.cfi_endproc
.LFE9791:
	.size	_ZSt3getILm0EJOSt4pairIxxEEERNSt13tuple_elementIXT_ESt5tupleIJDpT0_EEE4typeERS7_, .-_ZSt3getILm0EJOSt4pairIxxEEERNSt13tuple_elementIXT_ESt5tupleIJDpT0_EEE4typeERS7_
	.section	.text._ZSt12__get_helperILm0EOSt4pairIxxEJEERT0_RSt11_Tuple_implIXT_EJS3_DpT1_EE,"axG",@progbits,_ZSt12__get_helperILm0EOSt4pairIxxEJEERT0_RSt11_Tuple_implIXT_EJS3_DpT1_EE,comdat
	.weak	_ZSt12__get_helperILm0EOSt4pairIxxEJEERT0_RSt11_Tuple_implIXT_EJS3_DpT1_EE
	.type	_ZSt12__get_helperILm0EOSt4pairIxxEJEERT0_RSt11_Tuple_implIXT_EJS3_DpT1_EE, @function
_ZSt12__get_helperILm0EOSt4pairIxxEJEERT0_RSt11_Tuple_implIXT_EJS3_DpT1_EE:
.LFB9792:
	.cfi_startproc
	endbr64
	pushq	%rbp
	.cfi_def_cfa_offset 16
	.cfi_offset 6, -16
	movq	%rsp, %rbp
	.cfi_def_cfa_register 6
	subq	$16, %rsp
	movq	%rdi, -8(%rbp)
	movq	-8(%rbp), %rax
	movq	%rax, %rdi
	call	_ZNSt11_Tuple_implILm0EJOSt4pairIxxEEE7_M_headERS3_
	leave
	.cfi_def_cfa 7, 8
	ret
	.cfi_endproc
.LFE9792:
	.size	_ZSt12__get_helperILm0EOSt4pairIxxEJEERT0_RSt11_Tuple_implIXT_EJS3_DpT1_EE, .-_ZSt12__get_helperILm0EOSt4pairIxxEJEERT0_RSt11_Tuple_implIXT_EJS3_DpT1_EE
	.section	.text._ZNSt3mapISt4pairIxxExSt4lessIS1_ESaIS0_IKS1_xEEED2Ev,"axG",@progbits,_ZNSt3mapISt4pairIxxExSt4lessIS1_ESaIS0_IKS1_xEEED5Ev,comdat
	.align 2
	.weak	_ZNSt3mapISt4pairIxxExSt4lessIS1_ESaIS0_IKS1_xEEED2Ev
	.type	_ZNSt3mapISt4pairIxxExSt4lessIS1_ESaIS0_IKS1_xEEED2Ev, @function
_ZNSt3mapISt4pairIxxExSt4lessIS1_ESaIS0_IKS1_xEEED2Ev:
.LFB9819:
	.cfi_startproc
	endbr64
	pushq	%rbp
	.cfi_def_cfa_offset 16
	.cfi_offset 6, -16
	movq	%rsp, %rbp
	.cfi_def_cfa_register 6
	subq	$16, %rsp
	movq	%rdi, -8(%rbp)
	movq	-8(%rbp), %rax
	movq	%rax, %rdi
	call	_ZNSt8_Rb_treeISt4pairIxxES0_IKS1_xESt10_Select1stIS3_ESt4lessIS1_ESaIS3_EED1Ev
	nop
	leave
	.cfi_def_cfa 7, 8
	ret
	.cfi_endproc
.LFE9819:
	.size	_ZNSt3mapISt4pairIxxExSt4lessIS1_ESaIS0_IKS1_xEEED2Ev, .-_ZNSt3mapISt4pairIxxExSt4lessIS1_ESaIS0_IKS1_xEEED2Ev
	.weak	_ZNSt3mapISt4pairIxxExSt4lessIS1_ESaIS0_IKS1_xEEED1Ev
	.set	_ZNSt3mapISt4pairIxxExSt4lessIS1_ESaIS0_IKS1_xEEED1Ev,_ZNSt3mapISt4pairIxxExSt4lessIS1_ESaIS0_IKS1_xEEED2Ev
	.text
	.type	_Z41__static_initialization_and_destruction_0ii, @function
_Z41__static_initialization_and_destruction_0ii:
.LFB9817:
	.cfi_startproc
	endbr64
	pushq	%rbp
	.cfi_def_cfa_offset 16
	.cfi_offset 6, -16
	movq	%rsp, %rbp
	.cfi_def_cfa_register 6
	subq	$16, %rsp
	movl	%edi, -4(%rbp)
	movl	%esi, -8(%rbp)
	cmpl	$1, -4(%rbp)
	jne	.L254
	cmpl	$65535, -8(%rbp)
	jne	.L254
	leaq	_ZStL8__ioinit(%rip), %rdi
	call	_ZNSt8ios_base4InitC1Ev@PLT
	leaq	__dso_handle(%rip), %rdx
	leaq	_ZStL8__ioinit(%rip), %rsi
	movq	_ZNSt8ios_base4InitD1Ev@GOTPCREL(%rip), %rax
	movq	%rax, %rdi
	call	__cxa_atexit@PLT
	leaq	existed(%rip), %rdi
	call	_ZNSt3mapISt4pairIxxExSt4lessIS1_ESaIS0_IKS1_xEEEC1Ev
	leaq	__dso_handle(%rip), %rdx
	leaq	existed(%rip), %rsi
	leaq	_ZNSt3mapISt4pairIxxExSt4lessIS1_ESaIS0_IKS1_xEEED1Ev(%rip), %rdi
	call	__cxa_atexit@PLT
.L254:
	nop
	leave
	.cfi_def_cfa 7, 8
	ret
	.cfi_endproc
.LFE9817:
	.size	_Z41__static_initialization_and_destruction_0ii, .-_Z41__static_initialization_and_destruction_0ii
	.type	_GLOBAL__sub_I_ids, @function
_GLOBAL__sub_I_ids:
.LFB9843:
	.cfi_startproc
	endbr64
	pushq	%rbp
	.cfi_def_cfa_offset 16
	.cfi_offset 6, -16
	movq	%rsp, %rbp
	.cfi_def_cfa_register 6
	movl	$65535, %esi
	movl	$1, %edi
	call	_Z41__static_initialization_and_destruction_0ii
	popq	%rbp
	.cfi_def_cfa 7, 8
	ret
	.cfi_endproc
.LFE9843:
	.size	_GLOBAL__sub_I_ids, .-_GLOBAL__sub_I_ids
	.section	.init_array,"aw"
	.align 8
	.quad	_GLOBAL__sub_I_ids
	.hidden	DW.ref.__gxx_personality_v0
	.weak	DW.ref.__gxx_personality_v0
	.section	.data.rel.local.DW.ref.__gxx_personality_v0,"awG",@progbits,DW.ref.__gxx_personality_v0,comdat
	.align 8
	.type	DW.ref.__gxx_personality_v0, @object
	.size	DW.ref.__gxx_personality_v0, 8
DW.ref.__gxx_personality_v0:
	.quad	__gxx_personality_v0
	.hidden	__dso_handle
	.ident	"GCC: (Ubuntu 9.4.0-1ubuntu1~20.04.1) 9.4.0"
	.section	.note.GNU-stack,"",@progbits
	.section	.note.gnu.property,"a"
	.align 8
	.long	 1f - 0f
	.long	 4f - 1f
	.long	 5
0:
	.string	 "GNU"
1:
	.align 8
	.long	 0xc0000002
	.long	 3f - 2f
2:
	.long	 0x3
3:
	.align 8
4:
